---
triple:          'arm64-apple-darwin'
binary-path:     '/Users/armanbabakhani/Documents/GitHub/PMR_ElectronicStructure/ElecStruc_cycles'
relocations:
  - { offsetInCU: 0x18D41, offset: 0x18D41, size: 0x8, addend: 0x0, symName: __ZStL8__ioinit, symObjAddr: 0xF37A8, symBinAddr: 0x100035EE8, symSize: 0x0 }
  - { offsetInCU: 0x19D38, offset: 0x19D38, size: 0x8, addend: 0x0, symName: __GLOBAL__sub_I_ElecStruc_cycles.cpp, symObjAddr: 0x18B68, symBinAddr: 0x10001D594, symSize: 0x14 }
  - { offsetInCU: 0x19D55, offset: 0x19D55, size: 0x8, addend: 0x0, symName: __Z41__static_initialization_and_destruction_0v, symObjAddr: 0x18B2C, symBinAddr: 0x10001D558, symSize: 0x3C }
  - { offsetInCU: 0x19D4B, offset: 0x19D4B, size: 0x8, addend: 0x0, symName: __ZSt7forwardIRSt7complexIdEEOT_RNSt16remove_referenceIS3_E4typeE, symObjAddr: 0x17F60, symBinAddr: 0x10001D544, symSize: 0x14 }
  - { offsetInCU: 0x19D7B, offset: 0x19D7B, size: 0x8, addend: 0x0, symName: __ZNSt11__copy_moveILb0ELb0ESt26random_access_iterator_tagE12__assign_oneISt7complexIdES4_EEvPT_PT0_, symObjAddr: 0x17F30, symBinAddr: 0x10001D514, symSize: 0x30 }
  - { offsetInCU: 0x19DC5, offset: 0x19DC5, size: 0x8, addend: 0x0, symName: __ZNSt11__copy_moveILb0ELb0ESt26random_access_iterator_tagE12__assign_oneISt7complexIdEKS4_EEvPT_PT0_, symObjAddr: 0x17F00, symBinAddr: 0x10001D4E4, symSize: 0x30 }
  - { offsetInCU: 0x19E0F, offset: 0x19E0F, size: 0x8, addend: 0x0, symName: __ZSt10_ConstructISt7complexIdEJRS1_EEvPT_DpOT0_, symObjAddr: 0x17EB0, symBinAddr: 0x10001D494, symSize: 0x50 }
  - { offsetInCU: 0x19E57, offset: 0x19E57, size: 0x8, addend: 0x0, symName: __ZNSt11__copy_moveILb0ELb1ESt26random_access_iterator_tagE8__copy_mISt7complexIdES4_EEPT0_PT_S8_S6_, symObjAddr: 0x17E20, symBinAddr: 0x10001D404, symSize: 0x90 }
  - { offsetInCU: 0x19EC1, offset: 0x19EC1, size: 0x8, addend: 0x0, symName: __ZNSt11__copy_moveILb0ELb1ESt26random_access_iterator_tagE8__copy_mIKSt7complexIdES4_EEPT0_PT_S9_S7_, symObjAddr: 0x17D90, symBinAddr: 0x10001D374, symSize: 0x90 }
  - { offsetInCU: 0x19F2B, offset: 0x19F2B, size: 0x8, addend: 0x0, symName: __ZSt16__do_uninit_copyIPSt7complexIdES2_ET0_T_S4_S3_, symObjAddr: 0x17D2C, symBinAddr: 0x10001D310, symSize: 0x64 }
  - { offsetInCU: 0x19F91, offset: 0x19F91, size: 0x8, addend: 0x0, symName: __ZSt14__copy_move_a2ILb0EPSt7complexIdES2_ET1_T0_S4_S3_, symObjAddr: 0x17D00, symBinAddr: 0x10001D2E4, symSize: 0x2C }
  - { offsetInCU: 0x19FF9, offset: 0x19FF9, size: 0x8, addend: 0x0, symName: __ZNK9__gnu_cxx17__normal_iteratorIPSt7complexIdESt6vectorIS2_SaIS2_EEEplEl, symObjAddr: 0x17CC0, symBinAddr: 0x10001D2A4, symSize: 0x40 }
  - { offsetInCU: 0x1A02D, offset: 0x1A02D, size: 0x8, addend: 0x0, symName: __ZSt14__copy_move_a2ILb0EPKSt7complexIdEPS1_ET1_T0_S6_S5_, symObjAddr: 0x17C94, symBinAddr: 0x10001D278, symSize: 0x2C }
  - { offsetInCU: 0x1A091, offset: 0x1A091, size: 0x8, addend: 0x0, symName: __ZNSt11__copy_moveILb0ELb0ESt26random_access_iterator_tagE12__assign_oneIddEEvPT_PT0_, symObjAddr: 0x17C6C, symBinAddr: 0x10001D250, symSize: 0x28 }
  - { offsetInCU: 0x1A0DB, offset: 0x1A0DB, size: 0x8, addend: 0x0, symName: __ZNSt20__uninitialized_copyILb0EE13__uninit_copyIPSt7complexIdES4_EET0_T_S6_S5_, symObjAddr: 0x17C40, symBinAddr: 0x10001D224, symSize: 0x2C }
  - { offsetInCU: 0x1A132, offset: 0x1A132, size: 0x8, addend: 0x0, symName: __ZSt12__niter_wrapIPSt7complexIdEET_RKS3_S3_, symObjAddr: 0x17C28, symBinAddr: 0x10001D20C, symSize: 0x18 }
  - { offsetInCU: 0x1A16B, offset: 0x1A16B, size: 0x8, addend: 0x0, symName: __ZSt14__copy_move_a1ILb0EPSt7complexIdES2_ET1_T0_S4_S3_, symObjAddr: 0x17BFC, symBinAddr: 0x10001D1E0, symSize: 0x2C }
  - { offsetInCU: 0x1A1CF, offset: 0x1A1CF, size: 0x8, addend: 0x0, symName: __ZNSt12_Destroy_auxILb1EE9__destroyIN9__gnu_cxx17__normal_iteratorIPSt7complexIdESt6vectorIS5_SaIS5_EEEEEEvT_SB_, symObjAddr: 0x17BE4, symBinAddr: 0x10001D1C8, symSize: 0x18 }
  - { offsetInCU: 0x1A200, offset: 0x1A200, size: 0x8, addend: 0x0, symName: __ZSt12__niter_wrapIN9__gnu_cxx17__normal_iteratorIPSt7complexIdESt6vectorIS3_SaIS3_EEEES4_ET_S9_T0_, symObjAddr: 0x17BA8, symBinAddr: 0x10001D18C, symSize: 0x3C }
  - { offsetInCU: 0x1A24A, offset: 0x1A24A, size: 0x8, addend: 0x0, symName: __ZSt14__copy_move_a1ILb0EPKSt7complexIdEPS1_ET1_T0_S6_S5_, symObjAddr: 0x17B7C, symBinAddr: 0x10001D160, symSize: 0x2C }
  - { offsetInCU: 0x1A2AE, offset: 0x1A2AE, size: 0x8, addend: 0x0, symName: __ZSt12__niter_baseIPSt7complexIdESt6vectorIS1_SaIS1_EEET_N9__gnu_cxx17__normal_iteratorIS6_T0_EE, symObjAddr: 0x17B5C, symBinAddr: 0x10001D140, symSize: 0x20 }
  - { offsetInCU: 0x1A2E8, offset: 0x1A2E8, size: 0x8, addend: 0x0, symName: __ZSt12__niter_baseIPKSt7complexIdESt6vectorIS1_SaIS1_EEET_N9__gnu_cxx17__normal_iteratorIS7_T0_EE, symObjAddr: 0x17B3C, symBinAddr: 0x10001D120, symSize: 0x20 }
  - { offsetInCU: 0x1A367, offset: 0x1A367, size: 0x8, addend: 0x0, symName: __ZSt7forwardINSt7__cxx1112basic_stringIcSt11char_traitsIcESaIcEEEEOT_RNSt16remove_referenceIS6_E4typeE, symObjAddr: 0x17B28, symBinAddr: 0x10001D10C, symSize: 0x14 }
  - { offsetInCU: 0x1A397, offset: 0x1A397, size: 0x8, addend: 0x0, symName: __ZNSt11__copy_moveILb0ELb1ESt26random_access_iterator_tagE8__copy_mIddEEPT0_PT_S6_S4_, symObjAddr: 0x17A98, symBinAddr: 0x10001D07C, symSize: 0x90 }
  - { offsetInCU: 0x1A401, offset: 0x1A401, size: 0x8, addend: 0x0, symName: __ZNSt11__copy_moveILb0ELb0ESt26random_access_iterator_tagE12__assign_oneIdKdEEvPT_PT0_, symObjAddr: 0x17A70, symBinAddr: 0x10001D054, symSize: 0x28 }
  - { offsetInCU: 0x1A44B, offset: 0x1A44B, size: 0x8, addend: 0x0, symName: __ZSt18uninitialized_copyIPSt7complexIdES2_ET0_T_S4_S3_, symObjAddr: 0x17A3C, symBinAddr: 0x10001D020, symSize: 0x34 }
  - { offsetInCU: 0x1A4C0, offset: 0x1A4C0, size: 0x8, addend: 0x0, symName: __ZSt13__copy_move_aILb0EPSt7complexIdES2_ET1_T0_S4_S3_, symObjAddr: 0x179DC, symBinAddr: 0x10001CFC0, symSize: 0x60 }
  - { offsetInCU: 0x1A524, offset: 0x1A524, size: 0x8, addend: 0x0, symName: __ZSt12__miter_baseIPSt7complexIdEET_S3_, symObjAddr: 0x179C8, symBinAddr: 0x10001CFAC, symSize: 0x14 }
  - { offsetInCU: 0x1A555, offset: 0x1A555, size: 0x8, addend: 0x0, symName: __ZSt8_DestroyIN9__gnu_cxx17__normal_iteratorIPSt7complexIdESt6vectorIS3_SaIS3_EEEEEvT_S9_, symObjAddr: 0x179A0, symBinAddr: 0x10001CF84, symSize: 0x28 }
  - { offsetInCU: 0x1A594, offset: 0x1A594, size: 0x8, addend: 0x0, symName: __ZSt13__copy_move_aILb0EN9__gnu_cxx17__normal_iteratorIPKSt7complexIdESt6vectorIS3_SaIS3_EEEENS1_IPS3_S8_EEET1_T0_SD_SC_, symObjAddr: 0x17940, symBinAddr: 0x10001CF24, symSize: 0x60 }
  - { offsetInCU: 0x1A5F8, offset: 0x1A5F8, size: 0x8, addend: 0x0, symName: __ZSt12__miter_baseIN9__gnu_cxx17__normal_iteratorIPKSt7complexIdESt6vectorIS3_SaIS3_EEEEET_SA_, symObjAddr: 0x1792C, symBinAddr: 0x10001CF10, symSize: 0x14 }
  - { offsetInCU: 0x1A62D, offset: 0x1A62D, size: 0x8, addend: 0x0, symName: __ZNSt6vectorISt7complexIdESaIS1_EE15_M_erase_at_endEPS1_, symObjAddr: 0x178A4, symBinAddr: 0x10001CE88, symSize: 0x88 }
  - { offsetInCU: 0x1A712, offset: 0x1A712, size: 0x8, addend: 0x0, symName: __ZSt14__copy_move_a2ILb0EPdS0_ET1_T0_S2_S1_, symObjAddr: 0x17878, symBinAddr: 0x10001CE5C, symSize: 0x2C }
  - { offsetInCU: 0x1A776, offset: 0x1A776, size: 0x8, addend: 0x0, symName: __ZNSt20__copy_move_backwardILb1ELb1ESt26random_access_iterator_tagE13__copy_move_bIiiEEPT0_PT_S6_S4_, symObjAddr: 0x177CC, symBinAddr: 0x10001CDB0, symSize: 0xAC }
  - { offsetInCU: 0x1A7EF, offset: 0x1A7EF, size: 0x8, addend: 0x0, symName: __ZNK9__gnu_cxx5__ops14_Iter_less_valclINS_17__normal_iteratorIPiSt6vectorIiSaIiEEEEiEEbT_RT0_, symObjAddr: 0x17790, symBinAddr: 0x10001CD74, symSize: 0x3C }
  - { offsetInCU: 0x1A843, offset: 0x1A843, size: 0x8, addend: 0x0, symName: __ZNSt20__copy_move_backwardILb1ELb0ESt26random_access_iterator_tagE13__copy_move_bIPSt6vectorIiSaIiEES6_EET0_T_S8_S7_, symObjAddr: 0x17708, symBinAddr: 0x10001CCEC, symSize: 0x88 }
  - { offsetInCU: 0x1A8B1, offset: 0x1A8B1, size: 0x8, addend: 0x0, symName: __ZN9__gnu_cxx5__ops14_Iter_comp_valIPFbRKSt6vectorIiSaIiEES6_EEclINS_17__normal_iteratorIPS4_S2_IS4_SaIS4_EEEES4_EEbT_RT0_, symObjAddr: 0x176CC, symBinAddr: 0x10001CCB0, symSize: 0x3C }
  - { offsetInCU: 0x1A905, offset: 0x1A905, size: 0x8, addend: 0x0, symName: __ZNSt11__copy_moveILb0ELb1ESt26random_access_iterator_tagE8__copy_mIKddEEPT0_PT_S7_S5_, symObjAddr: 0x1763C, symBinAddr: 0x10001CC20, symSize: 0x90 }
  - { offsetInCU: 0x1A96F, offset: 0x1A96F, size: 0x8, addend: 0x0, symName: __ZSt9__fill_a1IPiiEN9__gnu_cxx11__enable_ifIXsrSt11__is_scalarIT0_E7__valueEvE6__typeET_S8_RKS4_, symObjAddr: 0x175E4, symBinAddr: 0x10001CBC8, symSize: 0x58 }
  - { offsetInCU: 0x1A9D9, offset: 0x1A9D9, size: 0x8, addend: 0x0, symName: __ZSt9__fill_a1IPddEN9__gnu_cxx11__enable_ifIXsrSt11__is_scalarIT0_E7__valueEvE6__typeET_S8_RKS4_, symObjAddr: 0x1758C, symBinAddr: 0x10001CB70, symSize: 0x58 }
  - { offsetInCU: 0x1AA43, offset: 0x1AA43, size: 0x8, addend: 0x0, symName: __ZSt22__uninitialized_copy_aIPSt7complexIdES2_S1_ET0_T_S4_S3_RSaIT1_E, symObjAddr: 0x1755C, symBinAddr: 0x10001CB40, symSize: 0x30 }
  - { offsetInCU: 0x1AAAE, offset: 0x1AAAE, size: 0x8, addend: 0x0, symName: __ZSt4copyIPSt7complexIdES2_ET0_T_S4_S3_, symObjAddr: 0x17514, symBinAddr: 0x10001CAF8, symSize: 0x48 }
  - { offsetInCU: 0x1AB43, offset: 0x1AB43, size: 0x8, addend: 0x0, symName: __ZSt4copyIN9__gnu_cxx17__normal_iteratorIPKSt7complexIdESt6vectorIS3_SaIS3_EEEENS1_IPS3_S8_EEET0_T_SD_SC_, symObjAddr: 0x174CC, symBinAddr: 0x10001CAB0, symSize: 0x48 }
  - { offsetInCU: 0x1ABA1, offset: 0x1ABA1, size: 0x8, addend: 0x0, symName: __ZNSt6vectorISt7complexIdESaIS1_EE20_M_allocate_and_copyIN9__gnu_cxx17__normal_iteratorIPKS1_S3_EEEEPS1_mT_SB_, symObjAddr: 0x17448, symBinAddr: 0x10001CA2C, symSize: 0x84 }
  - { offsetInCU: 0x1AC12, offset: 0x1AC12, size: 0x8, addend: 0x0, symName: __ZNKSt6vectorISt7complexIdESaIS1_EE8capacityEv, symObjAddr: 0x17420, symBinAddr: 0x10001CA04, symSize: 0x28 }
  - { offsetInCU: 0x1AC67, offset: 0x1AC67, size: 0x8, addend: 0x0, symName: __ZNSt6vectorISt7complexIdESaIS1_EE5clearEv, symObjAddr: 0x173F4, symBinAddr: 0x10001C9D8, symSize: 0x2C }
  - { offsetInCU: 0x1AC9D, offset: 0x1AC9D, size: 0x8, addend: 0x0, symName: __ZSt11__addressofIKSt6vectorISt7complexIdESaIS2_EEEPT_RS6_, symObjAddr: 0x173E0, symBinAddr: 0x10001C9C4, symSize: 0x14 }
  - { offsetInCU: 0x1ACD3, offset: 0x1ACD3, size: 0x8, addend: 0x0, symName: __ZSt7forwardIRKSt6vectorIS0_IiSaIiEESaIS2_EEEOT_RNSt16remove_referenceIS7_E4typeE, symObjAddr: 0x173CC, symBinAddr: 0x10001C9B0, symSize: 0x14 }
  - { offsetInCU: 0x1AD17, offset: 0x1AD17, size: 0x8, addend: 0x0, symName: __ZSt19__relocate_object_aINSt7__cxx1112basic_stringIcSt11char_traitsIcESaIcEEES5_SaIS5_EEvPT_PT0_RT1_, symObjAddr: 0x172FC, symBinAddr: 0x10001C8E0, symSize: 0xD0 }
  - { offsetInCU: 0x1AE6F, offset: 0x1AE6F, size: 0x8, addend: 0x0, symName: __ZSt14__copy_move_a1ILb0EPdS0_ET1_T0_S2_S1_, symObjAddr: 0x172D0, symBinAddr: 0x10001C8B4, symSize: 0x2C }
  - { offsetInCU: 0x1AED3, offset: 0x1AED3, size: 0x8, addend: 0x0, symName: __ZSt12__niter_baseIPdSt6vectorIdSaIdEEET_N9__gnu_cxx17__normal_iteratorIS4_T0_EE, symObjAddr: 0x172B0, symBinAddr: 0x10001C894, symSize: 0x20 }
  - { offsetInCU: 0x1AF0D, offset: 0x1AF0D, size: 0x8, addend: 0x0, symName: __ZNSt11__copy_moveILb1ELb0ESt26random_access_iterator_tagE12__assign_oneIiiEEvPT_PT0_, symObjAddr: 0x17280, symBinAddr: 0x10001C864, symSize: 0x30 }
  - { offsetInCU: 0x1AF57, offset: 0x1AF57, size: 0x8, addend: 0x0, symName: __ZSt23__copy_move_backward_a2ILb1EPiS0_ET1_T0_S2_S1_, symObjAddr: 0x17254, symBinAddr: 0x10001C838, symSize: 0x2C }
  - { offsetInCU: 0x1AFC1, offset: 0x1AFC1, size: 0x8, addend: 0x0, symName: __ZSt11__push_heapIN9__gnu_cxx17__normal_iteratorIPiSt6vectorIiSaIiEEEEliNS0_5__ops14_Iter_less_valEEvT_T0_SA_T1_RT2_, symObjAddr: 0x17130, symBinAddr: 0x10001C714, symSize: 0x124 }
  - { offsetInCU: 0x1B064, offset: 0x1B064, size: 0x8, addend: 0x0, symName: __ZSt4moveIRN9__gnu_cxx5__ops15_Iter_less_iterEEONSt16remove_referenceIT_E4typeEOS5_, symObjAddr: 0x1711C, symBinAddr: 0x10001C700, symSize: 0x14 }
  - { offsetInCU: 0x1B094, offset: 0x1B094, size: 0x8, addend: 0x0, symName: __ZSt23__copy_move_backward_a2ILb1EPSt6vectorIiSaIiEES3_ET1_T0_S5_S4_, symObjAddr: 0x170F0, symBinAddr: 0x10001C6D4, symSize: 0x2C }
  - { offsetInCU: 0x1B0FE, offset: 0x1B0FE, size: 0x8, addend: 0x0, symName: __ZSt11__push_heapIN9__gnu_cxx17__normal_iteratorIPSt6vectorIiSaIiEES2_IS4_SaIS4_EEEElS4_NS0_5__ops14_Iter_comp_valIPFbRKS4_SC_EEEEvT_T0_SH_T1_RT2_, symObjAddr: 0x16FC8, symBinAddr: 0x10001C5AC, symSize: 0x128 }
  - { offsetInCU: 0x1B21A, offset: 0x1B21A, size: 0x8, addend: 0x0, symName: __ZN9__gnu_cxx5__ops14_Iter_comp_valIPFbRKSt6vectorIiSaIiEES6_EEC1EONS0_15_Iter_comp_iterIS8_EE, symObjAddr: 0x16F98, symBinAddr: 0x10001C57C, symSize: 0x30 }
  - { offsetInCU: 0x1B1EA, offset: 0x1B1EA, size: 0x8, addend: 0x0, symName: __ZSt14__copy_move_a2ILb0EPKdPdET1_T0_S4_S3_, symObjAddr: 0x16F6C, symBinAddr: 0x10001C550, symSize: 0x2C }
  - { offsetInCU: 0x1B252, offset: 0x1B252, size: 0x8, addend: 0x0, symName: __ZNK9__gnu_cxx17__normal_iteratorIPKdSt6vectorIdSaIdEEE4baseEv, symObjAddr: 0x16F58, symBinAddr: 0x10001C53C, symSize: 0x14 }
  - { offsetInCU: 0x1B2BB, offset: 0x1B2BB, size: 0x8, addend: 0x0, symName: __ZSt7forwardISt6vectorIdSaIdEEEOT_RNSt16remove_referenceIS3_E4typeE, symObjAddr: 0x16F44, symBinAddr: 0x10001C528, symSize: 0x14 }
  - { offsetInCU: 0x1B330, offset: 0x1B330, size: 0x8, addend: 0x0, symName: __ZSt7forwardISt6vectorIiSaIiEEEOT_RNSt16remove_referenceIS3_E4typeE, symObjAddr: 0x16F30, symBinAddr: 0x10001C514, symSize: 0x14 }
  - { offsetInCU: 0x1B360, offset: 0x1B360, size: 0x8, addend: 0x0, symName: __ZSt8__fill_aIPiiEvT_S1_RKT0_, symObjAddr: 0x16F00, symBinAddr: 0x10001C4E4, symSize: 0x30 }
  - { offsetInCU: 0x1B3BA, offset: 0x1B3BA, size: 0x8, addend: 0x0, symName: __ZSt12__niter_baseIPKiET_S2_, symObjAddr: 0x16EEC, symBinAddr: 0x10001C4D0, symSize: 0x14 }
  - { offsetInCU: 0x1B3EB, offset: 0x1B3EB, size: 0x8, addend: 0x0, symName: __ZSt8__fill_aIPddEvT_S1_RKT0_, symObjAddr: 0x16EBC, symBinAddr: 0x10001C4A0, symSize: 0x30 }
  - { offsetInCU: 0x1B449, offset: 0x1B449, size: 0x8, addend: 0x0, symName: __ZNK9__gnu_cxx17__normal_iteratorIPKSt7complexIdESt6vectorIS2_SaIS2_EEE4baseEv, symObjAddr: 0x16EA8, symBinAddr: 0x10001C48C, symSize: 0x14 }
  - { offsetInCU: 0x1B473, offset: 0x1B473, size: 0x8, addend: 0x0, symName: __ZSt7forwardIRSt6vectorISt7complexIdESaIS2_EEEOT_RNSt16remove_referenceIS6_E4typeE, symObjAddr: 0x16E94, symBinAddr: 0x10001C478, symSize: 0x14 }
  - { offsetInCU: 0x1B4A7, offset: 0x1B4A7, size: 0x8, addend: 0x0, symName: __ZNSt6vectorISt7complexIdESaIS1_EEaSERKS3_, symObjAddr: 0x16B4C, symBinAddr: 0x10001C130, symSize: 0x348 }
  - { offsetInCU: 0x1B61F, offset: 0x1B61F, size: 0x8, addend: 0x0, symName: __ZSt10_ConstructISt6vectorISt7complexIdESaIS2_EEJRKS4_EEvPT_DpOT0_, symObjAddr: 0x16AD0, symBinAddr: 0x10001C0B4, symSize: 0x7C }
  - { offsetInCU: 0x1B66B, offset: 0x1B66B, size: 0x8, addend: 0x0, symName: __ZNK9__gnu_cxx17__normal_iteratorIPKSt6vectorISt7complexIdESaIS3_EES1_IS5_SaIS5_EEEdeEv, symObjAddr: 0x16AB8, symBinAddr: 0x10001C09C, symSize: 0x18 }
  - { offsetInCU: 0x1B693, offset: 0x1B693, size: 0x8, addend: 0x0, symName: __ZN9__gnu_cxx17__normal_iteratorIPKSt6vectorISt7complexIdESaIS3_EES1_IS5_SaIS5_EEEppEv, symObjAddr: 0x16A90, symBinAddr: 0x10001C074, symSize: 0x28 }
  - { offsetInCU: 0x1B6BD, offset: 0x1B6BD, size: 0x8, addend: 0x0, symName: __ZN9__gnu_cxxneIPKSt6vectorISt7complexIdESaIS3_EES1_IS5_SaIS5_EEEEbRKNS_17__normal_iteratorIT_T0_EESF_, symObjAddr: 0x16A4C, symBinAddr: 0x10001C030, symSize: 0x44 }
  - { offsetInCU: 0x1B70D, offset: 0x1B70D, size: 0x8, addend: 0x0, symName: __ZSt7forwardIRSt6vectorIS0_IiSaIiEESaIS2_EEEOT_RNSt16remove_referenceIS6_E4typeE, symObjAddr: 0x16A38, symBinAddr: 0x10001C01C, symSize: 0x14 }
  - { offsetInCU: 0x1B73D, offset: 0x1B73D, size: 0x8, addend: 0x0, symName: __ZSt10_ConstructISt6vectorIS0_IiSaIiEESaIS2_EEJRKS4_EEvPT_DpOT0_, symObjAddr: 0x169BC, symBinAddr: 0x10001BFA0, symSize: 0x7C }
  - { offsetInCU: 0x1B789, offset: 0x1B789, size: 0x8, addend: 0x0, symName: __ZNK9__gnu_cxx17__normal_iteratorIPKSt6vectorIS1_IiSaIiEESaIS3_EES1_IS5_SaIS5_EEEdeEv, symObjAddr: 0x169A4, symBinAddr: 0x10001BF88, symSize: 0x18 }
  - { offsetInCU: 0x1B7B1, offset: 0x1B7B1, size: 0x8, addend: 0x0, symName: __ZN9__gnu_cxx17__normal_iteratorIPKSt6vectorIS1_IiSaIiEESaIS3_EES1_IS5_SaIS5_EEEppEv, symObjAddr: 0x1697C, symBinAddr: 0x10001BF60, symSize: 0x28 }
  - { offsetInCU: 0x1B7DB, offset: 0x1B7DB, size: 0x8, addend: 0x0, symName: __ZN9__gnu_cxxneIPKSt6vectorIS1_IiSaIiEESaIS3_EES1_IS5_SaIS5_EEEEbRKNS_17__normal_iteratorIT_T0_EESF_, symObjAddr: 0x16938, symBinAddr: 0x10001BF1C, symSize: 0x44 }
  - { offsetInCU: 0x1B82B, offset: 0x1B82B, size: 0x8, addend: 0x0, symName: __ZSt7forwardIRSt6vectorIiSaIiEEEOT_RNSt16remove_referenceIS4_E4typeE, symObjAddr: 0x16924, symBinAddr: 0x10001BF08, symSize: 0x14 }
  - { offsetInCU: 0x1B85B, offset: 0x1B85B, size: 0x8, addend: 0x0, symName: __ZSt19__relocate_object_aISt6vectorIS0_IiSaIiEESaIS2_EES4_SaIS4_EEvPT_PT0_RT1_, symObjAddr: 0x16854, symBinAddr: 0x10001BE38, symSize: 0xD0 }
  - { offsetInCU: 0x1B99F, offset: 0x1B99F, size: 0x8, addend: 0x0, symName: __ZSt14__relocate_a_1IPNSt7__cxx1112basic_stringIcSt11char_traitsIcESaIcEEES6_SaIS5_EET0_T_S9_S8_RT1_, symObjAddr: 0x167D0, symBinAddr: 0x10001BDB4, symSize: 0x84 }
  - { offsetInCU: 0x1BA22, offset: 0x1BA22, size: 0x8, addend: 0x0, symName: __ZSt12__niter_baseIPNSt7__cxx1112basic_stringIcSt11char_traitsIcESaIcEEEET_S7_, symObjAddr: 0x167BC, symBinAddr: 0x10001BDA0, symSize: 0x14 }
  - { offsetInCU: 0x1BA57, offset: 0x1BA57, size: 0x8, addend: 0x0, symName: __ZNSt15__new_allocatorINSt7__cxx1112basic_stringIcSt11char_traitsIcESaIcEEEE8allocateEmPKv, symObjAddr: 0x16740, symBinAddr: 0x10001BD24, symSize: 0x7C }
  - { offsetInCU: 0x1BAC9, offset: 0x1BAC9, size: 0x8, addend: 0x0, symName: __ZNKSt12_Vector_baseINSt7__cxx1112basic_stringIcSt11char_traitsIcESaIcEEESaIS5_EE19_M_get_Tp_allocatorEv, symObjAddr: 0x1672C, symBinAddr: 0x10001BD10, symSize: 0x14 }
  - { offsetInCU: 0x1BAED, offset: 0x1BAED, size: 0x8, addend: 0x0, symName: __ZNSt6vectorINSt7__cxx1112basic_stringIcSt11char_traitsIcESaIcEEESaIS5_EE11_S_max_sizeERKS6_, symObjAddr: 0x166D8, symBinAddr: 0x10001BCBC, symSize: 0x54 }
  - { offsetInCU: 0x1BBB4, offset: 0x1BBB4, size: 0x8, addend: 0x0, symName: __ZSt13__copy_move_aILb0EN9__gnu_cxx17__normal_iteratorIPdSt6vectorIdSaIdEEEES2_ET1_T0_S8_S7_, symObjAddr: 0x16678, symBinAddr: 0x10001BC5C, symSize: 0x60 }
  - { offsetInCU: 0x1BC18, offset: 0x1BC18, size: 0x8, addend: 0x0, symName: __ZSt12__miter_baseIN9__gnu_cxx17__normal_iteratorIPdSt6vectorIdSaIdEEEEET_S7_, symObjAddr: 0x16664, symBinAddr: 0x10001BC48, symSize: 0x14 }
  - { offsetInCU: 0x1BC49, offset: 0x1BC49, size: 0x8, addend: 0x0, symName: __ZNSt11__copy_moveILb1ELb1ESt26random_access_iterator_tagE8__copy_mIiiEEPT0_PT_S6_S4_, symObjAddr: 0x165D4, symBinAddr: 0x10001BBB8, symSize: 0x90 }
  - { offsetInCU: 0x1BCB3, offset: 0x1BCB3, size: 0x8, addend: 0x0, symName: __ZSt23__copy_move_backward_a1ILb1EPiS0_ET1_T0_S2_S1_, symObjAddr: 0x165A8, symBinAddr: 0x10001BB8C, symSize: 0x2C }
  - { offsetInCU: 0x1BD17, offset: 0x1BD17, size: 0x8, addend: 0x0, symName: __ZSt4swapIiENSt9enable_ifIXsrSt6__and_IJSt6__not_ISt15__is_tuple_likeIT_EESt21is_move_constructibleIS4_ESt18is_move_assignableIS4_EEE5valueEvE4typeERS4_SE_, symObjAddr: 0x16554, symBinAddr: 0x10001BB38, symSize: 0x54 }
  - { offsetInCU: 0x1BD65, offset: 0x1BD65, size: 0x8, addend: 0x0, symName: __ZSt13__adjust_heapIN9__gnu_cxx17__normal_iteratorIPiSt6vectorIiSaIiEEEEliNS0_5__ops15_Iter_less_iterEEvT_T0_SA_T1_T2_, symObjAddr: 0x16380, symBinAddr: 0x10001B964, symSize: 0x1D4 }
  - { offsetInCU: 0x1BE1E, offset: 0x1BE1E, size: 0x8, addend: 0x0, symName: __ZNSt11__copy_moveILb0ELb0ESt26random_access_iterator_tagE12__assign_oneIiiEEvPT_PT0_, symObjAddr: 0x16358, symBinAddr: 0x10001B93C, symSize: 0x28 }
  - { offsetInCU: 0x1BE68, offset: 0x1BE68, size: 0x8, addend: 0x0, symName: __ZNSt11__copy_moveILb0ELb0ESt26random_access_iterator_tagE12__assign_oneIiKiEEvPT_PT0_, symObjAddr: 0x16330, symBinAddr: 0x10001B914, symSize: 0x28 }
  - { offsetInCU: 0x1BEB2, offset: 0x1BEB2, size: 0x8, addend: 0x0, symName: __ZSt23__copy_move_backward_a1ILb1EPSt6vectorIiSaIiEES3_ET1_T0_S5_S4_, symObjAddr: 0x16304, symBinAddr: 0x10001B8E8, symSize: 0x2C }
  - { offsetInCU: 0x1BF16, offset: 0x1BF16, size: 0x8, addend: 0x0, symName: __ZSt13__adjust_heapIN9__gnu_cxx17__normal_iteratorIPSt6vectorIiSaIiEES2_IS4_SaIS4_EEEElS4_NS0_5__ops15_Iter_comp_iterIPFbRKS4_SC_EEEEvT_T0_SH_T1_T2_, symObjAddr: 0x16100, symBinAddr: 0x10001B6E4, symSize: 0x204 }
  - { offsetInCU: 0x1BFD1, offset: 0x1BFD1, size: 0x8, addend: 0x0, symName: __ZSt12__niter_wrapIPdET_RKS1_S1_, symObjAddr: 0x160E8, symBinAddr: 0x10001B6CC, symSize: 0x18 }
  - { offsetInCU: 0x1C00A, offset: 0x1C00A, size: 0x8, addend: 0x0, symName: __ZSt14__copy_move_a1ILb0EPKdPdET1_T0_S4_S3_, symObjAddr: 0x160BC, symBinAddr: 0x10001B6A0, symSize: 0x2C }
  - { offsetInCU: 0x1C06E, offset: 0x1C06E, size: 0x8, addend: 0x0, symName: __ZSt12__niter_baseIPKdSt6vectorIdSaIdEEET_N9__gnu_cxx17__normal_iteratorIS5_T0_EE, symObjAddr: 0x1609C, symBinAddr: 0x10001B680, symSize: 0x20 }
  - { offsetInCU: 0x1C130, offset: 0x1C130, size: 0x8, addend: 0x0, symName: __ZSt10__fill_n_aIPimiET_S1_T0_RKT1_St26random_access_iterator_tag, symObjAddr: 0x16038, symBinAddr: 0x10001B61C, symSize: 0x64 }
  - { offsetInCU: 0x1C1B1, offset: 0x1C1B1, size: 0x8, addend: 0x0, symName: __ZSt13__copy_move_aILb0EPKiPiET1_T0_S4_S3_, symObjAddr: 0x15FD8, symBinAddr: 0x10001B5BC, symSize: 0x60 }
  - { offsetInCU: 0x1C215, offset: 0x1C215, size: 0x8, addend: 0x0, symName: __ZSt12__miter_baseIPKiET_S2_, symObjAddr: 0x15FC4, symBinAddr: 0x10001B5A8, symSize: 0x14 }
  - { offsetInCU: 0x1C246, offset: 0x1C246, size: 0x8, addend: 0x0, symName: __ZSt10__fill_n_aIPdmdET_S1_T0_RKT1_St26random_access_iterator_tag, symObjAddr: 0x15F60, symBinAddr: 0x10001B544, symSize: 0x64 }
  - { offsetInCU: 0x1C2CB, offset: 0x1C2CB, size: 0x8, addend: 0x0, symName: __ZNK9__gnu_cxx17__normal_iteratorIPKSt6vectorIdSaIdEES1_IS3_SaIS3_EEE4baseEv, symObjAddr: 0x15F4C, symBinAddr: 0x10001B530, symSize: 0x14 }
  - { offsetInCU: 0x1C2EF, offset: 0x1C2EF, size: 0x8, addend: 0x0, symName: __ZSt10_ConstructISt7complexIdEJRKS1_EEvPT_DpOT0_, symObjAddr: 0x15EFC, symBinAddr: 0x10001B4E0, symSize: 0x50 }
  - { offsetInCU: 0x1C33B, offset: 0x1C33B, size: 0x8, addend: 0x0, symName: __ZNK9__gnu_cxx17__normal_iteratorIPKSt7complexIdESt6vectorIS2_SaIS2_EEEdeEv, symObjAddr: 0x15EE4, symBinAddr: 0x10001B4C8, symSize: 0x18 }
  - { offsetInCU: 0x1C363, offset: 0x1C363, size: 0x8, addend: 0x0, symName: __ZN9__gnu_cxx17__normal_iteratorIPKSt7complexIdESt6vectorIS2_SaIS2_EEEppEv, symObjAddr: 0x15EBC, symBinAddr: 0x10001B4A0, symSize: 0x28 }
  - { offsetInCU: 0x1C38D, offset: 0x1C38D, size: 0x8, addend: 0x0, symName: __ZN9__gnu_cxxneIPKSt7complexIdESt6vectorIS2_SaIS2_EEEEbRKNS_17__normal_iteratorIT_T0_EESD_, symObjAddr: 0x15E78, symBinAddr: 0x10001B45C, symSize: 0x44 }
  - { offsetInCU: 0x1C3D7, offset: 0x1C3D7, size: 0x8, addend: 0x0, symName: __ZSt10_ConstructISt6vectorISt7complexIdESaIS2_EEJRS4_EEvPT_DpOT0_, symObjAddr: 0x15DFC, symBinAddr: 0x10001B3E0, symSize: 0x7C }
  - { offsetInCU: 0x1C41F, offset: 0x1C41F, size: 0x8, addend: 0x0, symName: __ZNSt11__copy_moveILb0ELb0ESt26random_access_iterator_tagE8__copy_mIPSt6vectorISt7complexIdESaIS5_EES8_EET0_T_SA_S9_, symObjAddr: 0x15D7C, symBinAddr: 0x10001B360, symSize: 0x80 }
  - { offsetInCU: 0x1C4A9, offset: 0x1C4A9, size: 0x8, addend: 0x0, symName: __ZNSt11__copy_moveILb0ELb0ESt26random_access_iterator_tagE8__copy_mIPKSt6vectorISt7complexIdESaIS5_EEPS7_EET0_T_SC_SB_, symObjAddr: 0x15CFC, symBinAddr: 0x10001B2E0, symSize: 0x80 }
  - { offsetInCU: 0x1C533, offset: 0x1C533, size: 0x8, addend: 0x0, symName: __ZSt16__do_uninit_copyIN9__gnu_cxx17__normal_iteratorIPKSt6vectorISt7complexIdESaIS4_EES2_IS6_SaIS6_EEEEPS6_ET0_T_SE_SD_, symObjAddr: 0x15C54, symBinAddr: 0x10001B238, symSize: 0xA8 }
  - { offsetInCU: 0x1C599, offset: 0x1C599, size: 0x8, addend: 0x0, symName: __ZSt10_ConstructISt6vectorIS0_IiSaIiEESaIS2_EEJRS4_EEvPT_DpOT0_, symObjAddr: 0x15BD8, symBinAddr: 0x10001B1BC, symSize: 0x7C }
  - { offsetInCU: 0x1C5E1, offset: 0x1C5E1, size: 0x8, addend: 0x0, symName: __ZNSt11__copy_moveILb0ELb0ESt26random_access_iterator_tagE8__copy_mIPSt6vectorIS3_IiSaIiEESaIS5_EES8_EET0_T_SA_S9_, symObjAddr: 0x15B58, symBinAddr: 0x10001B13C, symSize: 0x80 }
  - { offsetInCU: 0x1C66B, offset: 0x1C66B, size: 0x8, addend: 0x0, symName: __ZNSt11__copy_moveILb0ELb0ESt26random_access_iterator_tagE8__copy_mIPKSt6vectorIS3_IiSaIiEESaIS5_EEPS7_EET0_T_SC_SB_, symObjAddr: 0x15AD8, symBinAddr: 0x10001B0BC, symSize: 0x80 }
  - { offsetInCU: 0x1C6F5, offset: 0x1C6F5, size: 0x8, addend: 0x0, symName: __ZSt16__do_uninit_copyIN9__gnu_cxx17__normal_iteratorIPKSt6vectorIS2_IiSaIiEESaIS4_EES2_IS6_SaIS6_EEEEPS6_ET0_T_SE_SD_, symObjAddr: 0x15A30, symBinAddr: 0x10001B014, symSize: 0xA8 }
  - { offsetInCU: 0x1C76F, offset: 0x1C76F, size: 0x8, addend: 0x0, symName: __ZSt10_ConstructISt6vectorIiSaIiEEJRS2_EEvPT_DpOT0_, symObjAddr: 0x159B4, symBinAddr: 0x10001AF98, symSize: 0x7C }
  - { offsetInCU: 0x1C7B7, offset: 0x1C7B7, size: 0x8, addend: 0x0, symName: __ZNSt11__copy_moveILb0ELb0ESt26random_access_iterator_tagE8__copy_mIPSt6vectorIiSaIiEES6_EET0_T_S8_S7_, symObjAddr: 0x15934, symBinAddr: 0x10001AF18, symSize: 0x80 }
  - { offsetInCU: 0x1C841, offset: 0x1C841, size: 0x8, addend: 0x0, symName: __ZNSt11__copy_moveILb0ELb0ESt26random_access_iterator_tagE8__copy_mIPKSt6vectorIiSaIiEEPS5_EET0_T_SA_S9_, symObjAddr: 0x158B4, symBinAddr: 0x10001AE98, symSize: 0x80 }
  - { offsetInCU: 0x1C8CB, offset: 0x1C8CB, size: 0x8, addend: 0x0, symName: __ZSt18__do_uninit_fill_nIPSt6vectorIiSaIiEEmS2_ET_S4_T0_RKT1_, symObjAddr: 0x15824, symBinAddr: 0x10001AE08, symSize: 0x90 }
  - { offsetInCU: 0x1C93E, offset: 0x1C93E, size: 0x8, addend: 0x0, symName: __ZSt10_ConstructIiJEEvPT_DpOT0_, symObjAddr: 0x157F8, symBinAddr: 0x10001ADDC, symSize: 0x2C }
  - { offsetInCU: 0x1C978, offset: 0x1C978, size: 0x8, addend: 0x0, symName: __ZSt11__addressofIiEPT_RS0_, symObjAddr: 0x157E4, symBinAddr: 0x10001ADC8, symSize: 0x14 }
  - { offsetInCU: 0x1C9A8, offset: 0x1C9A8, size: 0x8, addend: 0x0, symName: __ZSt14__relocate_a_1IPSt6vectorIS0_IiSaIiEESaIS2_EES5_SaIS4_EET0_T_S8_S7_RT1_, symObjAddr: 0x15760, symBinAddr: 0x10001AD44, symSize: 0x84 }
  - { offsetInCU: 0x1CA2B, offset: 0x1CA2B, size: 0x8, addend: 0x0, symName: __ZNSt6vectorIS_IS_IiSaIiEESaIS1_EESaIS3_EE11_S_max_sizeERKS4_, symObjAddr: 0x15704, symBinAddr: 0x10001ACE8, symSize: 0x5C }
  - { offsetInCU: 0x1CADE, offset: 0x1CADE, size: 0x8, addend: 0x0, symName: __ZSt16__do_uninit_copyIPKSt7complexIdEPS1_ET0_T_S6_S5_, symObjAddr: 0x156A0, symBinAddr: 0x10001AC84, symSize: 0x64 }
  - { offsetInCU: 0x1CB58, offset: 0x1CB58, size: 0x8, addend: 0x0, symName: __ZSt19__relocate_object_aISt7complexIdES1_SaIS1_EEvPT_PT0_RT1_, symObjAddr: 0x155D4, symBinAddr: 0x10001ABB8, symSize: 0xCC }
  - { offsetInCU: 0x1CC86, offset: 0x1CC86, size: 0x8, addend: 0x0, symName: __ZSt11__addressofISt7complexIdEEPT_RS2_, symObjAddr: 0x155C0, symBinAddr: 0x10001ABA4, symSize: 0x14 }
  - { offsetInCU: 0x1CCF4, offset: 0x1CCF4, size: 0x8, addend: 0x0, symName: __ZSt12__relocate_aIPNSt7__cxx1112basic_stringIcSt11char_traitsIcESaIcEEES6_SaIS5_EET0_T_S9_S8_RT1_, symObjAddr: 0x15564, symBinAddr: 0x10001AB48, symSize: 0x5C }
  - { offsetInCU: 0x1CD8F, offset: 0x1CD8F, size: 0x8, addend: 0x0, symName: __ZNKSt6vectorINSt7__cxx1112basic_stringIcSt11char_traitsIcESaIcEEESaIS5_EE8max_sizeEv, symObjAddr: 0x15544, symBinAddr: 0x10001AB28, symSize: 0x20 }
  - { offsetInCU: 0x1CDB3, offset: 0x1CDB3, size: 0x8, addend: 0x0, symName: __ZSt19__relocate_object_aISt6vectorISt7complexIdESaIS2_EES4_SaIS4_EEvPT_PT0_RT1_, symObjAddr: 0x15474, symBinAddr: 0x10001AA58, symSize: 0xD0 }
  - { offsetInCU: 0x1CF0B, offset: 0x1CF0B, size: 0x8, addend: 0x0, symName: __ZSt4copyIN9__gnu_cxx17__normal_iteratorIPdSt6vectorIdSaIdEEEES2_ET0_T_S8_S7_, symObjAddr: 0x1542C, symBinAddr: 0x10001AA10, symSize: 0x48 }
  - { offsetInCU: 0x1CF65, offset: 0x1CF65, size: 0x8, addend: 0x0, symName: __ZSt14__relocate_a_1IddENSt9enable_ifIXsrSt24__is_bitwise_relocatableIT_vE5valueEPS2_E4typeES4_S4_S4_RSaIT0_E, symObjAddr: 0x153C4, symBinAddr: 0x10001A9A8, symSize: 0x68 }
  - { offsetInCU: 0x1CFDF, offset: 0x1CFDF, size: 0x8, addend: 0x0, symName: __ZSt12__niter_baseIPdET_S1_, symObjAddr: 0x153B0, symBinAddr: 0x10001A994, symSize: 0x14 }
  - { offsetInCU: 0x1D010, offset: 0x1D010, size: 0x8, addend: 0x0, symName: __ZSt14__copy_move_a2ILb1EPiS0_ET1_T0_S2_S1_, symObjAddr: 0x15384, symBinAddr: 0x10001A968, symSize: 0x2C }
  - { offsetInCU: 0x1D083, offset: 0x1D083, size: 0x8, addend: 0x0, symName: __ZNK9__gnu_cxx5__ops14_Val_less_iterclIiNS_17__normal_iteratorIPiSt6vectorIiSaIiEEEEEEbRT_T0_, symObjAddr: 0x15340, symBinAddr: 0x10001A924, symSize: 0x44 }
  - { offsetInCU: 0x1D0D7, offset: 0x1D0D7, size: 0x8, addend: 0x0, symName: __ZSt22__copy_move_backward_aILb1EN9__gnu_cxx17__normal_iteratorIPiSt6vectorIiSaIiEEEES6_ET1_T0_S8_S7_, symObjAddr: 0x152E0, symBinAddr: 0x10001A8C4, symSize: 0x60 }
  - { offsetInCU: 0x1D13B, offset: 0x1D13B, size: 0x8, addend: 0x0, symName: __ZSt9iter_swapIN9__gnu_cxx17__normal_iteratorIPiSt6vectorIiSaIiEEEES6_EvT_T0_, symObjAddr: 0x1529C, symBinAddr: 0x10001A880, symSize: 0x44 }
  - { offsetInCU: 0x1D187, offset: 0x1D187, size: 0x8, addend: 0x0, symName: __ZN9__gnu_cxx17__normal_iteratorIPiSt6vectorIiSaIiEEEmmEv, symObjAddr: 0x15274, symBinAddr: 0x10001A858, symSize: 0x28 }
  - { offsetInCU: 0x1D1AB, offset: 0x1D1AB, size: 0x8, addend: 0x0, symName: __ZSt10__pop_heapIN9__gnu_cxx17__normal_iteratorIPiSt6vectorIiSaIiEEEENS0_5__ops15_Iter_less_iterEEvT_S9_S9_RT0_, symObjAddr: 0x151E4, symBinAddr: 0x10001A7C8, symSize: 0x90 }
  - { offsetInCU: 0x1D241, offset: 0x1D241, size: 0x8, addend: 0x0, symName: __ZN9__gnu_cxxltIPiSt6vectorIiSaIiEEEEbRKNS_17__normal_iteratorIT_T0_EESA_, symObjAddr: 0x151A0, symBinAddr: 0x10001A784, symSize: 0x44 }
  - { offsetInCU: 0x1D28B, offset: 0x1D28B, size: 0x8, addend: 0x0, symName: __ZSt11__make_heapIN9__gnu_cxx17__normal_iteratorIPiSt6vectorIiSaIiEEEENS0_5__ops15_Iter_less_iterEEvT_S9_RT0_, symObjAddr: 0x150C0, symBinAddr: 0x10001A6A4, symSize: 0xE0 }
  - { offsetInCU: 0x1D33B, offset: 0x1D33B, size: 0x8, addend: 0x0, symName: __ZNSt11__copy_moveILb0ELb1ESt26random_access_iterator_tagE8__copy_mIiiEEPT0_PT_S6_S4_, symObjAddr: 0x15030, symBinAddr: 0x10001A614, symSize: 0x90 }
  - { offsetInCU: 0x1D3A5, offset: 0x1D3A5, size: 0x8, addend: 0x0, symName: __ZNSt11__copy_moveILb0ELb1ESt26random_access_iterator_tagE8__copy_mIKiiEEPT0_PT_S7_S5_, symObjAddr: 0x14FA0, symBinAddr: 0x10001A584, symSize: 0x90 }
  - { offsetInCU: 0x1D413, offset: 0x1D413, size: 0x8, addend: 0x0, symName: __ZN9__gnu_cxx5__ops14_Val_comp_iterIPFbRKSt6vectorIiSaIiEES6_EEclIS4_NS_17__normal_iteratorIPS4_S2_IS4_SaIS4_EEEEEEbRT_T0_, symObjAddr: 0x14F60, symBinAddr: 0x10001A544, symSize: 0x40 }
  - { offsetInCU: 0x1D4EB, offset: 0x1D4EB, size: 0x8, addend: 0x0, symName: __ZN9__gnu_cxx5__ops14_Val_comp_iterIPFbRKSt6vectorIiSaIiEES6_EEC1EONS0_15_Iter_comp_iterIS8_EE, symObjAddr: 0x14F30, symBinAddr: 0x10001A514, symSize: 0x30 }
  - { offsetInCU: 0x1D4C7, offset: 0x1D4C7, size: 0x8, addend: 0x0, symName: __ZSt4moveIRN9__gnu_cxx5__ops15_Iter_comp_iterIPFbRKSt6vectorIiSaIiEES7_EEEEONSt16remove_referenceIT_E4typeEOSD_, symObjAddr: 0x14F1C, symBinAddr: 0x10001A500, symSize: 0x14 }
  - { offsetInCU: 0x1D4F7, offset: 0x1D4F7, size: 0x8, addend: 0x0, symName: __ZSt22__copy_move_backward_aILb1EN9__gnu_cxx17__normal_iteratorIPSt6vectorIiSaIiEES2_IS4_SaIS4_EEEES8_ET1_T0_SA_S9_, symObjAddr: 0x14EBC, symBinAddr: 0x10001A4A0, symSize: 0x60 }
  - { offsetInCU: 0x1D55B, offset: 0x1D55B, size: 0x8, addend: 0x0, symName: __ZSt12__miter_baseIN9__gnu_cxx17__normal_iteratorIPSt6vectorIiSaIiEES2_IS4_SaIS4_EEEEET_S9_, symObjAddr: 0x14EA8, symBinAddr: 0x10001A48C, symSize: 0x14 }
  - { offsetInCU: 0x1D58C, offset: 0x1D58C, size: 0x8, addend: 0x0, symName: __ZSt9iter_swapIN9__gnu_cxx17__normal_iteratorIPSt6vectorIiSaIiEES2_IS4_SaIS4_EEEES8_EvT_T0_, symObjAddr: 0x14E64, symBinAddr: 0x10001A448, symSize: 0x44 }
  - { offsetInCU: 0x1D5D8, offset: 0x1D5D8, size: 0x8, addend: 0x0, symName: __ZN9__gnu_cxx17__normal_iteratorIPSt6vectorIiSaIiEES1_IS3_SaIS3_EEEmmEv, symObjAddr: 0x14E3C, symBinAddr: 0x10001A420, symSize: 0x28 }
  - { offsetInCU: 0x1D5FC, offset: 0x1D5FC, size: 0x8, addend: 0x0, symName: __ZSt10__pop_heapIN9__gnu_cxx17__normal_iteratorIPSt6vectorIiSaIiEES2_IS4_SaIS4_EEEENS0_5__ops15_Iter_comp_iterIPFbRKS4_SC_EEEEvT_SG_SG_RT0_, symObjAddr: 0x14D68, symBinAddr: 0x10001A34C, symSize: 0xD4 }
  - { offsetInCU: 0x1D694, offset: 0x1D694, size: 0x8, addend: 0x0, symName: __ZN9__gnu_cxxltIPSt6vectorIiSaIiEES1_IS3_SaIS3_EEEEbRKNS_17__normal_iteratorIT_T0_EESC_, symObjAddr: 0x14D24, symBinAddr: 0x10001A308, symSize: 0x44 }
  - { offsetInCU: 0x1D6DE, offset: 0x1D6DE, size: 0x8, addend: 0x0, symName: __ZSt11__make_heapIN9__gnu_cxx17__normal_iteratorIPSt6vectorIiSaIiEES2_IS4_SaIS4_EEEENS0_5__ops15_Iter_comp_iterIPFbRKS4_SC_EEEEvT_SG_RT0_, symObjAddr: 0x14BF0, symBinAddr: 0x10001A1D4, symSize: 0x134 }
  - { offsetInCU: 0x1D792, offset: 0x1D792, size: 0x8, addend: 0x0, symName: __ZSt13__copy_move_aILb0EN9__gnu_cxx17__normal_iteratorIPKdSt6vectorIdSaIdEEEEPdET1_T0_SA_S9_, symObjAddr: 0x14B90, symBinAddr: 0x10001A174, symSize: 0x60 }
  - { offsetInCU: 0x1D7F6, offset: 0x1D7F6, size: 0x8, addend: 0x0, symName: __ZSt12__miter_baseIN9__gnu_cxx17__normal_iteratorIPKdSt6vectorIdSaIdEEEEET_S8_, symObjAddr: 0x14B7C, symBinAddr: 0x10001A160, symSize: 0x14 }
  - { offsetInCU: 0x1D827, offset: 0x1D827, size: 0x8, addend: 0x0, symName: __ZSt19__relocate_object_aISt6vectorIdSaIdEES2_SaIS2_EEvPT_PT0_RT1_, symObjAddr: 0x14AAC, symBinAddr: 0x10001A090, symSize: 0xD0 }
  - { offsetInCU: 0x1D955, offset: 0x1D955, size: 0x8, addend: 0x0, symName: __ZSt13__copy_move_aILb0EN9__gnu_cxx17__normal_iteratorIPKiSt6vectorIiSaIiEEEEPiET1_T0_SA_S9_, symObjAddr: 0x14A4C, symBinAddr: 0x10001A030, symSize: 0x60 }
  - { offsetInCU: 0x1D9B9, offset: 0x1D9B9, size: 0x8, addend: 0x0, symName: __ZSt19__relocate_object_aISt6vectorIiSaIiEES2_SaIS2_EEvPT_PT0_RT1_, symObjAddr: 0x1497C, symBinAddr: 0x100019F60, symSize: 0xD0 }
  - { offsetInCU: 0x1DAE7, offset: 0x1DAE7, size: 0x8, addend: 0x0, symName: __ZSt6fill_nIPimiET_S1_T0_RKT1_, symObjAddr: 0x14934, symBinAddr: 0x100019F18, symSize: 0x48 }
  - { offsetInCU: 0x1DB6B, offset: 0x1DB6B, size: 0x8, addend: 0x0, symName: __ZSt16__do_uninit_copyIPKSt6vectorIiSaIiEEPS2_ET0_T_S7_S6_, symObjAddr: 0x148A0, symBinAddr: 0x100019E84, symSize: 0x94 }
  - { offsetInCU: 0x1DBE5, offset: 0x1DBE5, size: 0x8, addend: 0x0, symName: __ZSt4copyIPKiPiET0_T_S4_S3_, symObjAddr: 0x14858, symBinAddr: 0x100019E3C, symSize: 0x48 }
  - { offsetInCU: 0x1DC3F, offset: 0x1DC3F, size: 0x8, addend: 0x0, symName: __ZSt10_ConstructISt6vectorIiSaIiEEJRKS2_EEvPT_DpOT0_, symObjAddr: 0x147DC, symBinAddr: 0x100019DC0, symSize: 0x7C }
  - { offsetInCU: 0x1DC8B, offset: 0x1DC8B, size: 0x8, addend: 0x0, symName: __ZNK9__gnu_cxx17__normal_iteratorIPKSt6vectorIiSaIiEES1_IS3_SaIS3_EEEdeEv, symObjAddr: 0x147C4, symBinAddr: 0x100019DA8, symSize: 0x18 }
  - { offsetInCU: 0x1DCB3, offset: 0x1DCB3, size: 0x8, addend: 0x0, symName: __ZN9__gnu_cxx17__normal_iteratorIPKSt6vectorIiSaIiEES1_IS3_SaIS3_EEEppEv, symObjAddr: 0x1479C, symBinAddr: 0x100019D80, symSize: 0x28 }
  - { offsetInCU: 0x1DCDD, offset: 0x1DCDD, size: 0x8, addend: 0x0, symName: __ZN9__gnu_cxxneIPKSt6vectorIiSaIiEES1_IS3_SaIS3_EEEEbRKNS_17__normal_iteratorIT_T0_EESD_, symObjAddr: 0x14758, symBinAddr: 0x100019D3C, symSize: 0x44 }
  - { offsetInCU: 0x1DD3B, offset: 0x1DD3B, size: 0x8, addend: 0x0, symName: __ZSt18__do_uninit_fill_nIPSt6vectorIdSaIdEEmS2_ET_S4_T0_RKT1_, symObjAddr: 0x146C8, symBinAddr: 0x100019CAC, symSize: 0x90 }
  - { offsetInCU: 0x1DDC2, offset: 0x1DDC2, size: 0x8, addend: 0x0, symName: __ZSt6fill_nIPdmdET_S1_T0_RKT1_, symObjAddr: 0x14680, symBinAddr: 0x100019C64, symSize: 0x48 }
  - { offsetInCU: 0x1DE5A, offset: 0x1DE5A, size: 0x8, addend: 0x0, symName: __ZSt10_ConstructISt6vectorIdSaIdEEJRKS2_EEvPT_DpOT0_, symObjAddr: 0x14604, symBinAddr: 0x100019BE8, symSize: 0x7C }
  - { offsetInCU: 0x1DEA6, offset: 0x1DEA6, size: 0x8, addend: 0x0, symName: __ZNK9__gnu_cxx17__normal_iteratorIPKSt6vectorIdSaIdEES1_IS3_SaIS3_EEEdeEv, symObjAddr: 0x145EC, symBinAddr: 0x100019BD0, symSize: 0x18 }
  - { offsetInCU: 0x1DECE, offset: 0x1DECE, size: 0x8, addend: 0x0, symName: __ZN9__gnu_cxx17__normal_iteratorIPKSt6vectorIdSaIdEES1_IS3_SaIS3_EEEppEv, symObjAddr: 0x145C4, symBinAddr: 0x100019BA8, symSize: 0x28 }
  - { offsetInCU: 0x1DEF8, offset: 0x1DEF8, size: 0x8, addend: 0x0, symName: __ZN9__gnu_cxxneIPKSt6vectorIdSaIdEES1_IS3_SaIS3_EEEEbRKNS_17__normal_iteratorIT_T0_EESD_, symObjAddr: 0x14580, symBinAddr: 0x100019B64, symSize: 0x44 }
  - { offsetInCU: 0x1DF42, offset: 0x1DF42, size: 0x8, addend: 0x0, symName: __ZSt16__do_uninit_copyIN9__gnu_cxx17__normal_iteratorIPKSt7complexIdESt6vectorIS3_SaIS3_EEEEPS3_ET0_T_SC_SB_, symObjAddr: 0x14500, symBinAddr: 0x100019AE4, symSize: 0x80 }
  - { offsetInCU: 0x1DFA8, offset: 0x1DFA8, size: 0x8, addend: 0x0, symName: __ZSt16__do_uninit_copyIPSt6vectorISt7complexIdESaIS2_EES5_ET0_T_S7_S6_, symObjAddr: 0x1446C, symBinAddr: 0x100019A50, symSize: 0x94 }
  - { offsetInCU: 0x1E00E, offset: 0x1E00E, size: 0x8, addend: 0x0, symName: __ZSt14__copy_move_a2ILb0EPSt6vectorISt7complexIdESaIS2_EES5_ET1_T0_S7_S6_, symObjAddr: 0x14440, symBinAddr: 0x100019A24, symSize: 0x2C }
  - { offsetInCU: 0x1E076, offset: 0x1E076, size: 0x8, addend: 0x0, symName: __ZN9__gnu_cxx17__normal_iteratorIPSt6vectorISt7complexIdESaIS3_EES1_IS5_SaIS5_EEEppEv, symObjAddr: 0x14418, symBinAddr: 0x1000199FC, symSize: 0x28 }
  - { offsetInCU: 0x1E0A0, offset: 0x1E0A0, size: 0x8, addend: 0x0, symName: __ZN9__gnu_cxxneIPSt6vectorISt7complexIdESaIS3_EES1_IS5_SaIS5_EEEEbRKNS_17__normal_iteratorIT_T0_EESE_, symObjAddr: 0x143D4, symBinAddr: 0x1000199B8, symSize: 0x44 }
  - { offsetInCU: 0x1E0EE, offset: 0x1E0EE, size: 0x8, addend: 0x0, symName: __ZNK9__gnu_cxx17__normal_iteratorIPSt6vectorISt7complexIdESaIS3_EES1_IS5_SaIS5_EEEplEl, symObjAddr: 0x14388, symBinAddr: 0x10001996C, symSize: 0x4C }
  - { offsetInCU: 0x1E122, offset: 0x1E122, size: 0x8, addend: 0x0, symName: __ZSt14__copy_move_a2ILb0EPKSt6vectorISt7complexIdESaIS2_EEPS4_ET1_T0_S9_S8_, symObjAddr: 0x1435C, symBinAddr: 0x100019940, symSize: 0x2C }
  - { offsetInCU: 0x1E18A, offset: 0x1E18A, size: 0x8, addend: 0x0, symName: __ZNK9__gnu_cxx17__normal_iteratorIPKSt6vectorISt7complexIdESaIS3_EES1_IS5_SaIS5_EEE4baseEv, symObjAddr: 0x14348, symBinAddr: 0x10001992C, symSize: 0x14 }
  - { offsetInCU: 0x1E1AE, offset: 0x1E1AE, size: 0x8, addend: 0x0, symName: __ZNSt20__uninitialized_copyILb0EE13__uninit_copyIN9__gnu_cxx17__normal_iteratorIPKSt6vectorISt7complexIdESaIS6_EES4_IS8_SaIS8_EEEEPS8_EET0_T_SG_SF_, symObjAddr: 0x1431C, symBinAddr: 0x100019900, symSize: 0x2C }
  - { offsetInCU: 0x1E205, offset: 0x1E205, size: 0x8, addend: 0x0, symName: __ZSt16__do_uninit_copyIPSt6vectorIS0_IiSaIiEESaIS2_EES5_ET0_T_S7_S6_, symObjAddr: 0x14288, symBinAddr: 0x10001986C, symSize: 0x94 }
  - { offsetInCU: 0x1E26B, offset: 0x1E26B, size: 0x8, addend: 0x0, symName: __ZSt14__copy_move_a2ILb0EPSt6vectorIS0_IiSaIiEESaIS2_EES5_ET1_T0_S7_S6_, symObjAddr: 0x1425C, symBinAddr: 0x100019840, symSize: 0x2C }
  - { offsetInCU: 0x1E2D3, offset: 0x1E2D3, size: 0x8, addend: 0x0, symName: __ZN9__gnu_cxx17__normal_iteratorIPSt6vectorIS1_IiSaIiEESaIS3_EES1_IS5_SaIS5_EEEppEv, symObjAddr: 0x14234, symBinAddr: 0x100019818, symSize: 0x28 }
  - { offsetInCU: 0x1E2FD, offset: 0x1E2FD, size: 0x8, addend: 0x0, symName: __ZN9__gnu_cxxneIPSt6vectorIS1_IiSaIiEESaIS3_EES1_IS5_SaIS5_EEEEbRKNS_17__normal_iteratorIT_T0_EESE_, symObjAddr: 0x141F0, symBinAddr: 0x1000197D4, symSize: 0x44 }
  - { offsetInCU: 0x1E34B, offset: 0x1E34B, size: 0x8, addend: 0x0, symName: __ZNK9__gnu_cxx17__normal_iteratorIPSt6vectorIS1_IiSaIiEESaIS3_EES1_IS5_SaIS5_EEEplEl, symObjAddr: 0x141A4, symBinAddr: 0x100019788, symSize: 0x4C }
  - { offsetInCU: 0x1E37F, offset: 0x1E37F, size: 0x8, addend: 0x0, symName: __ZSt14__copy_move_a2ILb0EPKSt6vectorIS0_IiSaIiEESaIS2_EEPS4_ET1_T0_S9_S8_, symObjAddr: 0x14178, symBinAddr: 0x10001975C, symSize: 0x2C }
  - { offsetInCU: 0x1E3E7, offset: 0x1E3E7, size: 0x8, addend: 0x0, symName: __ZNK9__gnu_cxx17__normal_iteratorIPKSt6vectorIS1_IiSaIiEESaIS3_EES1_IS5_SaIS5_EEE4baseEv, symObjAddr: 0x14164, symBinAddr: 0x100019748, symSize: 0x14 }
  - { offsetInCU: 0x1E40B, offset: 0x1E40B, size: 0x8, addend: 0x0, symName: __ZNSt20__uninitialized_copyILb0EE13__uninit_copyIN9__gnu_cxx17__normal_iteratorIPKSt6vectorIS4_IiSaIiEESaIS6_EES4_IS8_SaIS8_EEEEPS8_EET0_T_SG_SF_, symObjAddr: 0x14138, symBinAddr: 0x10001971C, symSize: 0x2C }
  - { offsetInCU: 0x1E466, offset: 0x1E466, size: 0x8, addend: 0x0, symName: __ZNSt15__new_allocatorISt6vectorIS0_IiSaIiEESaIS2_EEE8allocateEmPKv, symObjAddr: 0x140A8, symBinAddr: 0x10001968C, symSize: 0x90 }
  - { offsetInCU: 0x1E549, offset: 0x1E549, size: 0x8, addend: 0x0, symName: __ZNSt12_Vector_baseISt6vectorIS0_IiSaIiEESaIS2_EESaIS4_EE12_Vector_implC1ERKS5_, symObjAddr: 0x1405C, symBinAddr: 0x100019640, symSize: 0x4C }
  - { offsetInCU: 0x1E5F7, offset: 0x1E5F7, size: 0x8, addend: 0x0, symName: __ZNSt12_Vector_baseISt6vectorISt7complexIdESaIS2_EESaIS4_EE12_Vector_implC1ERKS5_, symObjAddr: 0x14010, symBinAddr: 0x1000195F4, symSize: 0x4C }
  - { offsetInCU: 0x1E62C, offset: 0x1E62C, size: 0x8, addend: 0x0, symName: __ZSt16__do_uninit_copyIPSt6vectorIiSaIiEES3_ET0_T_S5_S4_, symObjAddr: 0x13F7C, symBinAddr: 0x100019560, symSize: 0x94 }
  - { offsetInCU: 0x1E692, offset: 0x1E692, size: 0x8, addend: 0x0, symName: __ZSt14__copy_move_a2ILb0EPSt6vectorIiSaIiEES3_ET1_T0_S5_S4_, symObjAddr: 0x13F50, symBinAddr: 0x100019534, symSize: 0x2C }
  - { offsetInCU: 0x1E6F6, offset: 0x1E6F6, size: 0x8, addend: 0x0, symName: __ZSt14__copy_move_a2ILb0EPKSt6vectorIiSaIiEEPS2_ET1_T0_S7_S6_, symObjAddr: 0x13F24, symBinAddr: 0x100019508, symSize: 0x2C }
  - { offsetInCU: 0x1E75E, offset: 0x1E75E, size: 0x8, addend: 0x0, symName: __ZN9__gnu_cxx5__ops12_Iter_negateIZ19remove_wrong_cyclesRSt6vectorIS2_IiSaIiEESaIS4_EERKS6_EUliE_EclINS_17__normal_iteratorIPiS4_EEEEbT_, symObjAddr: 0x13EE0, symBinAddr: 0x1000194C4, symSize: 0x44 }
  - { offsetInCU: 0x1E7C2, offset: 0x1E7C2, size: 0x8, addend: 0x0, symName: __ZN9__gnu_cxx5__ops12_Iter_negateIZ19remove_wrong_cyclesRSt6vectorIS2_IiSaIiEESaIS4_EERKS6_EUliE_EC1ESA_, symObjAddr: 0x13EBC, symBinAddr: 0x1000194A0, symSize: 0x24 }
  - { offsetInCU: 0x1E7EC, offset: 0x1E7EC, size: 0x8, addend: 0x0, symName: __ZNSt22__uninitialized_fill_nILb0EE15__uninit_fill_nIPSt6vectorIiSaIiEEmS4_EET_S6_T0_RKT1_, symObjAddr: 0x13E90, symBinAddr: 0x100019474, symSize: 0x2C }
  - { offsetInCU: 0x1E863, offset: 0x1E863, size: 0x8, addend: 0x0, symName: __ZNSt27__uninitialized_default_n_1ILb1EE18__uninit_default_nIPimEET_S3_T0_, symObjAddr: 0x13E2C, symBinAddr: 0x100019410, symSize: 0x64 }
  - { offsetInCU: 0x1E900, offset: 0x1E900, size: 0x8, addend: 0x0, symName: __ZSt12__relocate_aIPSt6vectorIS0_IiSaIiEESaIS2_EES5_SaIS4_EET0_T_S8_S7_RT1_, symObjAddr: 0x13DD0, symBinAddr: 0x1000193B4, symSize: 0x5C }
  - { offsetInCU: 0x1E977, offset: 0x1E977, size: 0x8, addend: 0x0, symName: __ZNKSt6vectorIS_IS_IiSaIiEESaIS1_EESaIS3_EE8max_sizeEv, symObjAddr: 0x13DB0, symBinAddr: 0x100019394, symSize: 0x20 }
  - { offsetInCU: 0x1E99B, offset: 0x1E99B, size: 0x8, addend: 0x0, symName: __ZNSt20__uninitialized_copyILb0EE13__uninit_copyIPKSt7complexIdEPS3_EET0_T_S8_S7_, symObjAddr: 0x13D84, symBinAddr: 0x100019368, symSize: 0x2C }
  - { offsetInCU: 0x1EA08, offset: 0x1EA08, size: 0x8, addend: 0x0, symName: __ZSt14__relocate_a_1IPSt7complexIdES2_SaIS1_EET0_T_S5_S4_RT1_, symObjAddr: 0x13D00, symBinAddr: 0x1000192E4, symSize: 0x84 }
  - { offsetInCU: 0x1EA8B, offset: 0x1EA8B, size: 0x8, addend: 0x0, symName: __ZSt12__niter_baseIPSt7complexIdEET_S3_, symObjAddr: 0x13CEC, symBinAddr: 0x1000192D0, symSize: 0x14 }
  - { offsetInCU: 0x1EAC0, offset: 0x1EAC0, size: 0x8, addend: 0x0, symName: __ZNSt15__new_allocatorISt7complexIdEE8allocateEmPKv, symObjAddr: 0x13C70, symBinAddr: 0x100019254, symSize: 0x7C }
  - { offsetInCU: 0x1EB2E, offset: 0x1EB2E, size: 0x8, addend: 0x0, symName: __ZSt8_DestroyINSt7__cxx1112basic_stringIcSt11char_traitsIcESaIcEEEEvPT_, symObjAddr: 0x13C50, symBinAddr: 0x100019234, symSize: 0x20 }
  - { offsetInCU: 0x1EB62, offset: 0x1EB62, size: 0x8, addend: 0x0, symName: __ZNK9__gnu_cxx17__normal_iteratorIPNSt7__cxx1112basic_stringIcSt11char_traitsIcESaIcEEESt6vectorIS6_SaIS6_EEEdeEv, symObjAddr: 0x13C38, symBinAddr: 0x10001921C, symSize: 0x18 }
  - { offsetInCU: 0x1EB8A, offset: 0x1EB8A, size: 0x8, addend: 0x0, symName: __ZNK9__gnu_cxx17__normal_iteratorIPNSt7__cxx1112basic_stringIcSt11char_traitsIcESaIcEEESt6vectorIS6_SaIS6_EEEmiEl, symObjAddr: 0x13BF4, symBinAddr: 0x1000191D8, symSize: 0x44 }
  - { offsetInCU: 0x1EBEF, offset: 0x1EBEF, size: 0x8, addend: 0x0, symName: __ZNK9__gnu_cxx17__normal_iteratorIPNSt7__cxx1112basic_stringIcSt11char_traitsIcESaIcEEESt6vectorIS6_SaIS6_EEE4baseEv, symObjAddr: 0x13BE0, symBinAddr: 0x1000191C4, symSize: 0x14 }
  - { offsetInCU: 0x1EC13, offset: 0x1EC13, size: 0x8, addend: 0x0, symName: __ZNSt6vectorINSt7__cxx1112basic_stringIcSt11char_traitsIcESaIcEEESaIS5_EE11_S_relocateEPS5_S8_S8_RS6_, symObjAddr: 0x13BAC, symBinAddr: 0x100019190, symSize: 0x34 }
  - { offsetInCU: 0x1EC6F, offset: 0x1EC6F, size: 0x8, addend: 0x0, symName: __ZNSt12_Vector_baseINSt7__cxx1112basic_stringIcSt11char_traitsIcESaIcEEESaIS5_EE11_M_allocateEm, symObjAddr: 0x13B5C, symBinAddr: 0x100019140, symSize: 0x50 }
  - { offsetInCU: 0x1ECD6, offset: 0x1ECD6, size: 0x8, addend: 0x0, symName: __ZN9__gnu_cxxmiIPNSt7__cxx1112basic_stringIcSt11char_traitsIcESaIcEEESt6vectorIS6_SaIS6_EEEENS_17__normal_iteratorIT_T0_E15difference_typeERKSE_SH_, symObjAddr: 0x13B1C, symBinAddr: 0x100019100, symSize: 0x40 }
  - { offsetInCU: 0x1ED24, offset: 0x1ED24, size: 0x8, addend: 0x0, symName: __ZNSt6vectorINSt7__cxx1112basic_stringIcSt11char_traitsIcESaIcEEESaIS5_EE5beginEv, symObjAddr: 0x13AF8, symBinAddr: 0x1000190DC, symSize: 0x24 }
  - { offsetInCU: 0x1ED4C, offset: 0x1ED4C, size: 0x8, addend: 0x0, symName: __ZNKSt6vectorINSt7__cxx1112basic_stringIcSt11char_traitsIcESaIcEEESaIS5_EE12_M_check_lenEmPKc, symObjAddr: 0x13A28, symBinAddr: 0x10001900C, symSize: 0xD0 }
  - { offsetInCU: 0x1EE3B, offset: 0x1EE3B, size: 0x8, addend: 0x0, symName: __ZN9__gnu_cxx17__normal_iteratorIPNSt7__cxx1112basic_stringIcSt11char_traitsIcESaIcEEESt6vectorIS6_SaIS6_EEEC1ERKS7_, symObjAddr: 0x13A00, symBinAddr: 0x100018FE4, symSize: 0x28 }
  - { offsetInCU: 0x1EE38, offset: 0x1EE38, size: 0x8, addend: 0x0, symName: __ZNSt15__new_allocatorINSt7__cxx1112basic_stringIcSt11char_traitsIcESaIcEEEE10deallocateEPS5_m, symObjAddr: 0x139D0, symBinAddr: 0x100018FB4, symSize: 0x30 }
  - { offsetInCU: 0x1EE93, offset: 0x1EE93, size: 0x8, addend: 0x0, symName: __ZSt8_DestroyISt6vectorIS0_IiSaIiEESaIS2_EEEvPT_, symObjAddr: 0x139B0, symBinAddr: 0x100018F94, symSize: 0x20 }
  - { offsetInCU: 0x1EEC3, offset: 0x1EEC3, size: 0x8, addend: 0x0, symName: __ZSt11__addressofISt6vectorIS0_IiSaIiEESaIS2_EEEPT_RS5_, symObjAddr: 0x1399C, symBinAddr: 0x100018F80, symSize: 0x14 }
  - { offsetInCU: 0x1EEF3, offset: 0x1EEF3, size: 0x8, addend: 0x0, symName: __ZSt14__relocate_a_1IPSt6vectorISt7complexIdESaIS2_EES5_SaIS4_EET0_T_S8_S7_RT1_, symObjAddr: 0x13918, symBinAddr: 0x100018EFC, symSize: 0x84 }
  - { offsetInCU: 0x1EF7A, offset: 0x1EF7A, size: 0x8, addend: 0x0, symName: __ZNSt15__new_allocatorISt6vectorISt7complexIdESaIS2_EEE8allocateEmPKv, symObjAddr: 0x13888, symBinAddr: 0x100018E6C, symSize: 0x90 }
  - { offsetInCU: 0x1EFE8, offset: 0x1EFE8, size: 0x8, addend: 0x0, symName: __ZNSt6vectorIS_ISt7complexIdESaIS1_EESaIS3_EE11_S_max_sizeERKS4_, symObjAddr: 0x1382C, symBinAddr: 0x100018E10, symSize: 0x5C }
  - { offsetInCU: 0x1F09B, offset: 0x1F09B, size: 0x8, addend: 0x0, symName: __ZNSt20__uninitialized_copyILb1EE13__uninit_copyIN9__gnu_cxx17__normal_iteratorIPdSt6vectorIdSaIdEEEES4_EET0_T_SA_S9_, symObjAddr: 0x13800, symBinAddr: 0x100018DE4, symSize: 0x2C }
  - { offsetInCU: 0x1F0F6, offset: 0x1F0F6, size: 0x8, addend: 0x0, symName: __ZNSt15__new_allocatorIdE8allocateEmPKv, symObjAddr: 0x13784, symBinAddr: 0x100018D68, symSize: 0x7C }
  - { offsetInCU: 0x1F164, offset: 0x1F164, size: 0x8, addend: 0x0, symName: __ZSt8_DestroyISt6vectorISt7complexIdESaIS2_EEEvPT_, symObjAddr: 0x13764, symBinAddr: 0x100018D48, symSize: 0x20 }
  - { offsetInCU: 0x1F194, offset: 0x1F194, size: 0x8, addend: 0x0, symName: __ZSt11__addressofISt6vectorISt7complexIdESaIS2_EEEPT_RS5_, symObjAddr: 0x13750, symBinAddr: 0x100018D34, symSize: 0x14 }
  - { offsetInCU: 0x1F1C4, offset: 0x1F1C4, size: 0x8, addend: 0x0, symName: __ZSt12__relocate_aIPdS0_SaIdEET0_T_S3_S2_RT1_, symObjAddr: 0x136F4, symBinAddr: 0x100018CD8, symSize: 0x5C }
  - { offsetInCU: 0x1F23B, offset: 0x1F23B, size: 0x8, addend: 0x0, symName: __ZNKSt6vectorIdSaIdEE8max_sizeEv, symObjAddr: 0x136D4, symBinAddr: 0x100018CB8, symSize: 0x20 }
  - { offsetInCU: 0x1F25F, offset: 0x1F25F, size: 0x8, addend: 0x0, symName: __ZSt14__copy_move_a1ILb1EPiS0_ET1_T0_S2_S1_, symObjAddr: 0x136A8, symBinAddr: 0x100018C8C, symSize: 0x2C }
  - { offsetInCU: 0x1F2C3, offset: 0x1F2C3, size: 0x8, addend: 0x0, symName: __ZSt25__unguarded_linear_insertIN9__gnu_cxx17__normal_iteratorIPiSt6vectorIiSaIiEEEENS0_5__ops14_Val_less_iterEEvT_T0_, symObjAddr: 0x135FC, symBinAddr: 0x100018BE0, symSize: 0xAC }
  - { offsetInCU: 0x1F32D, offset: 0x1F32D, size: 0x8, addend: 0x0, symName: __ZSt13move_backwardIN9__gnu_cxx17__normal_iteratorIPiSt6vectorIiSaIiEEEES6_ET0_T_S8_S7_, symObjAddr: 0x135B4, symBinAddr: 0x100018B98, symSize: 0x48 }
  - { offsetInCU: 0x1F396, offset: 0x1F396, size: 0x8, addend: 0x0, symName: __ZNK9__gnu_cxx5__ops15_Iter_less_iterclINS_17__normal_iteratorIPiSt6vectorIiSaIiEEEES8_EEbT_T0_, symObjAddr: 0x1356C, symBinAddr: 0x100018B50, symSize: 0x48 }
  - { offsetInCU: 0x1F3EA, offset: 0x1F3EA, size: 0x8, addend: 0x0, symName: __ZSt21__unguarded_partitionIN9__gnu_cxx17__normal_iteratorIPiSt6vectorIiSaIiEEEENS0_5__ops15_Iter_less_iterEET_S9_S9_S9_T0_, symObjAddr: 0x134B4, symBinAddr: 0x100018A98, symSize: 0xB8 }
  - { offsetInCU: 0x1F454, offset: 0x1F454, size: 0x8, addend: 0x0, symName: __ZSt22__move_median_to_firstIN9__gnu_cxx17__normal_iteratorIPiSt6vectorIiSaIiEEEENS0_5__ops15_Iter_less_iterEEvT_S9_S9_S9_T0_, symObjAddr: 0x133A4, symBinAddr: 0x100018988, symSize: 0x110 }
  - { offsetInCU: 0x1F4C9, offset: 0x1F4C9, size: 0x8, addend: 0x0, symName: __ZSt11__sort_heapIN9__gnu_cxx17__normal_iteratorIPiSt6vectorIiSaIiEEEENS0_5__ops15_Iter_less_iterEEvT_S9_RT0_, symObjAddr: 0x1333C, symBinAddr: 0x100018920, symSize: 0x68 }
  - { offsetInCU: 0x1F523, offset: 0x1F523, size: 0x8, addend: 0x0, symName: __ZSt13__heap_selectIN9__gnu_cxx17__normal_iteratorIPiSt6vectorIiSaIiEEEENS0_5__ops15_Iter_less_iterEEvT_S9_S9_T0_, symObjAddr: 0x132A0, symBinAddr: 0x100018884, symSize: 0x9C }
  - { offsetInCU: 0x1F5B0, offset: 0x1F5B0, size: 0x8, addend: 0x0, symName: __ZSt14__copy_move_a2ILb0EPiS0_ET1_T0_S2_S1_, symObjAddr: 0x13274, symBinAddr: 0x100018858, symSize: 0x2C }
  - { offsetInCU: 0x1F614, offset: 0x1F614, size: 0x8, addend: 0x0, symName: __ZSt14__copy_move_a2ILb0EPKiPiET1_T0_S4_S3_, symObjAddr: 0x13248, symBinAddr: 0x10001882C, symSize: 0x2C }
  - { offsetInCU: 0x1F678, offset: 0x1F678, size: 0x8, addend: 0x0, symName: __ZSt25__unguarded_linear_insertIN9__gnu_cxx17__normal_iteratorIPSt6vectorIiSaIiEES2_IS4_SaIS4_EEEENS0_5__ops14_Val_comp_iterIPFbRKS4_SC_EEEEvT_T0_, symObjAddr: 0x13174, symBinAddr: 0x100018758, symSize: 0xD4 }
  - { offsetInCU: 0x1F6E2, offset: 0x1F6E2, size: 0x8, addend: 0x0, symName: __ZN9__gnu_cxx5__ops15__val_comp_iterIPFbRKSt6vectorIiSaIiEES6_EEENS0_14_Val_comp_iterIT_EENS0_15_Iter_comp_iterISA_EE, symObjAddr: 0x13148, symBinAddr: 0x10001872C, symSize: 0x2C }
  - { offsetInCU: 0x1F712, offset: 0x1F712, size: 0x8, addend: 0x0, symName: __ZSt13move_backwardIN9__gnu_cxx17__normal_iteratorIPSt6vectorIiSaIiEES2_IS4_SaIS4_EEEES8_ET0_T_SA_S9_, symObjAddr: 0x13100, symBinAddr: 0x1000186E4, symSize: 0x48 }
  - { offsetInCU: 0x1F770, offset: 0x1F770, size: 0x8, addend: 0x0, symName: __ZN9__gnu_cxx5__ops15_Iter_comp_iterIPFbRKSt6vectorIiSaIiEES6_EEclINS_17__normal_iteratorIPS4_S2_IS4_SaIS4_EEEESF_EEbT_T0_, symObjAddr: 0x130B4, symBinAddr: 0x100018698, symSize: 0x4C }
  - { offsetInCU: 0x1F7C4, offset: 0x1F7C4, size: 0x8, addend: 0x0, symName: __ZN9__gnu_cxxeqIPSt6vectorIiSaIiEES1_IS3_SaIS3_EEEEbRKNS_17__normal_iteratorIT_T0_EESC_, symObjAddr: 0x13070, symBinAddr: 0x100018654, symSize: 0x44 }
  - { offsetInCU: 0x1F80E, offset: 0x1F80E, size: 0x8, addend: 0x0, symName: __ZSt21__unguarded_partitionIN9__gnu_cxx17__normal_iteratorIPSt6vectorIiSaIiEES2_IS4_SaIS4_EEEENS0_5__ops15_Iter_comp_iterIPFbRKS4_SC_EEEET_SG_SG_SG_T0_, symObjAddr: 0x12FB8, symBinAddr: 0x10001859C, symSize: 0xB8 }
  - { offsetInCU: 0x1F878, offset: 0x1F878, size: 0x8, addend: 0x0, symName: __ZSt22__move_median_to_firstIN9__gnu_cxx17__normal_iteratorIPSt6vectorIiSaIiEES2_IS4_SaIS4_EEEENS0_5__ops15_Iter_comp_iterIPFbRKS4_SC_EEEEvT_SG_SG_SG_T0_, symObjAddr: 0x12EA8, symBinAddr: 0x10001848C, symSize: 0x110 }
  - { offsetInCU: 0x1F8F1, offset: 0x1F8F1, size: 0x8, addend: 0x0, symName: __ZNK9__gnu_cxx17__normal_iteratorIPSt6vectorIiSaIiEES1_IS3_SaIS3_EEEmiEl, symObjAddr: 0x12E58, symBinAddr: 0x10001843C, symSize: 0x50 }
  - { offsetInCU: 0x1F925, offset: 0x1F925, size: 0x8, addend: 0x0, symName: __ZSt11__sort_heapIN9__gnu_cxx17__normal_iteratorIPSt6vectorIiSaIiEES2_IS4_SaIS4_EEEENS0_5__ops15_Iter_comp_iterIPFbRKS4_SC_EEEEvT_SG_RT0_, symObjAddr: 0x12DF0, symBinAddr: 0x1000183D4, symSize: 0x68 }
  - { offsetInCU: 0x1F97F, offset: 0x1F97F, size: 0x8, addend: 0x0, symName: __ZSt13__heap_selectIN9__gnu_cxx17__normal_iteratorIPSt6vectorIiSaIiEES2_IS4_SaIS4_EEEENS0_5__ops15_Iter_comp_iterIPFbRKS4_SC_EEEEvT_SG_SG_T0_, symObjAddr: 0x12D54, symBinAddr: 0x100018338, symSize: 0x9C }
  - { offsetInCU: 0x1FA0C, offset: 0x1FA0C, size: 0x8, addend: 0x0, symName: __ZSt13__countl_zeroImEiT_, symObjAddr: 0x12D00, symBinAddr: 0x1000182E4, symSize: 0x54 }
  - { offsetInCU: 0x1FA9F, offset: 0x1FA9F, size: 0x8, addend: 0x0, symName: __ZSt4copyIN9__gnu_cxx17__normal_iteratorIPKdSt6vectorIdSaIdEEEEPdET0_T_SA_S9_, symObjAddr: 0x12CB8, symBinAddr: 0x10001829C, symSize: 0x48 }
  - { offsetInCU: 0x1FAF9, offset: 0x1FAF9, size: 0x8, addend: 0x0, symName: __ZSt14__relocate_a_1IPSt6vectorIdSaIdEES3_SaIS2_EET0_T_S6_S5_RT1_, symObjAddr: 0x12C34, symBinAddr: 0x100018218, symSize: 0x84 }
  - { offsetInCU: 0x1FB7C, offset: 0x1FB7C, size: 0x8, addend: 0x0, symName: __ZSt12__niter_baseIPSt6vectorIdSaIdEEET_S4_, symObjAddr: 0x12C20, symBinAddr: 0x100018204, symSize: 0x14 }
  - { offsetInCU: 0x1FBB1, offset: 0x1FBB1, size: 0x8, addend: 0x0, symName: __ZNSt15__new_allocatorISt6vectorIdSaIdEEE8allocateEmPKv, symObjAddr: 0x12B90, symBinAddr: 0x100018174, symSize: 0x90 }
  - { offsetInCU: 0x1FC1F, offset: 0x1FC1F, size: 0x8, addend: 0x0, symName: __ZSt4copyIN9__gnu_cxx17__normal_iteratorIPKiSt6vectorIiSaIiEEEEPiET0_T_SA_S9_, symObjAddr: 0x12B48, symBinAddr: 0x10001812C, symSize: 0x48 }
  - { offsetInCU: 0x1FC79, offset: 0x1FC79, size: 0x8, addend: 0x0, symName: __ZSt14__relocate_a_1IPSt6vectorIiSaIiEES3_SaIS2_EET0_T_S6_S5_RT1_, symObjAddr: 0x12AC4, symBinAddr: 0x1000180A8, symSize: 0x84 }
  - { offsetInCU: 0x1FCFC, offset: 0x1FCFC, size: 0x8, addend: 0x0, symName: __ZNSt22__uninitialized_fill_nILb1EE15__uninit_fill_nIPimiEET_S3_T0_RKT1_, symObjAddr: 0x12A98, symBinAddr: 0x10001807C, symSize: 0x2C }
  - { offsetInCU: 0x1FD73, offset: 0x1FD73, size: 0x8, addend: 0x0, symName: __ZNSt20__uninitialized_copyILb0EE13__uninit_copyIPKSt6vectorIiSaIiEEPS4_EET0_T_S9_S8_, symObjAddr: 0x12A6C, symBinAddr: 0x100018050, symSize: 0x2C }
  - { offsetInCU: 0x1FDCE, offset: 0x1FDCE, size: 0x8, addend: 0x0, symName: __ZNSt15__new_allocatorISt6vectorIiSaIiEEE8allocateEmPKv, symObjAddr: 0x129DC, symBinAddr: 0x100017FC0, symSize: 0x90 }
  - { offsetInCU: 0x1FE3C, offset: 0x1FE3C, size: 0x8, addend: 0x0, symName: __ZNSt20__uninitialized_copyILb1EE13__uninit_copyIPKiPiEET0_T_S6_S5_, symObjAddr: 0x129B0, symBinAddr: 0x100017F94, symSize: 0x2C }
  - { offsetInCU: 0x1FE93, offset: 0x1FE93, size: 0x8, addend: 0x0, symName: __ZSt8_DestroyISt6vectorIiSaIiEEEvPT_, symObjAddr: 0x12990, symBinAddr: 0x100017F74, symSize: 0x20 }
  - { offsetInCU: 0x1FEC3, offset: 0x1FEC3, size: 0x8, addend: 0x0, symName: __ZSt11__addressofISt6vectorIiSaIiEEEPT_RS3_, symObjAddr: 0x1297C, symBinAddr: 0x100017F60, symSize: 0x14 }
  - { offsetInCU: 0x1FEF3, offset: 0x1FEF3, size: 0x8, addend: 0x0, symName: __ZSt16__do_uninit_copyIN9__gnu_cxx17__normal_iteratorIPKSt6vectorIiSaIiEES2_IS4_SaIS4_EEEEPS4_ET0_T_SC_SB_, symObjAddr: 0x128D4, symBinAddr: 0x100017EB8, symSize: 0xA8 }
  - { offsetInCU: 0x1FF59, offset: 0x1FF59, size: 0x8, addend: 0x0, symName: __ZSt14__relocate_a_1IiiENSt9enable_ifIXsrSt24__is_bitwise_relocatableIT_vE5valueEPS2_E4typeES4_S4_S4_RSaIT0_E, symObjAddr: 0x1286C, symBinAddr: 0x100017E50, symSize: 0x68 }
  - { offsetInCU: 0x1FFD7, offset: 0x1FFD7, size: 0x8, addend: 0x0, symName: __ZNSt15__new_allocatorIiE8allocateEmPKv, symObjAddr: 0x127F0, symBinAddr: 0x100017DD4, symSize: 0x7C }
  - { offsetInCU: 0x20045, offset: 0x20045, size: 0x8, addend: 0x0, symName: __ZNSt22__uninitialized_fill_nILb0EE15__uninit_fill_nIPSt6vectorIdSaIdEEmS4_EET_S6_T0_RKT1_, symObjAddr: 0x127C4, symBinAddr: 0x100017DA8, symSize: 0x2C }
  - { offsetInCU: 0x200BC, offset: 0x200BC, size: 0x8, addend: 0x0, symName: __ZNSt22__uninitialized_fill_nILb1EE15__uninit_fill_nIPdmdEET_S3_T0_RKT1_, symObjAddr: 0x12798, symBinAddr: 0x100017D7C, symSize: 0x2C }
  - { offsetInCU: 0x20133, offset: 0x20133, size: 0x8, addend: 0x0, symName: __ZSt8_DestroyISt6vectorIdSaIdEEEvPT_, symObjAddr: 0x12778, symBinAddr: 0x100017D5C, symSize: 0x20 }
  - { offsetInCU: 0x20163, offset: 0x20163, size: 0x8, addend: 0x0, symName: __ZSt11__addressofISt6vectorIdSaIdEEEPT_RS3_, symObjAddr: 0x12764, symBinAddr: 0x100017D48, symSize: 0x14 }
  - { offsetInCU: 0x20193, offset: 0x20193, size: 0x8, addend: 0x0, symName: __ZSt16__do_uninit_copyIN9__gnu_cxx17__normal_iteratorIPKSt6vectorIdSaIdEES2_IS4_SaIS4_EEEEPS4_ET0_T_SC_SB_, symObjAddr: 0x126BC, symBinAddr: 0x100017CA0, symSize: 0xA8 }
  - { offsetInCU: 0x201F9, offset: 0x201F9, size: 0x8, addend: 0x0, symName: __ZNSt20__uninitialized_copyILb0EE13__uninit_copyIN9__gnu_cxx17__normal_iteratorIPKSt7complexIdESt6vectorIS5_SaIS5_EEEEPS5_EET0_T_SE_SD_, symObjAddr: 0x12690, symBinAddr: 0x100017C74, symSize: 0x2C }
  - { offsetInCU: 0x20250, offset: 0x20250, size: 0x8, addend: 0x0, symName: __ZNSt20__uninitialized_copyILb0EE13__uninit_copyIPSt6vectorISt7complexIdESaIS4_EES7_EET0_T_S9_S8_, symObjAddr: 0x12664, symBinAddr: 0x100017C48, symSize: 0x2C }
  - { offsetInCU: 0x202A7, offset: 0x202A7, size: 0x8, addend: 0x0, symName: __ZSt12__niter_wrapIPSt6vectorISt7complexIdESaIS2_EEET_RKS6_S6_, symObjAddr: 0x1264C, symBinAddr: 0x100017C30, symSize: 0x18 }
  - { offsetInCU: 0x202E0, offset: 0x202E0, size: 0x8, addend: 0x0, symName: __ZSt14__copy_move_a1ILb0EPSt6vectorISt7complexIdESaIS2_EES5_ET1_T0_S7_S6_, symObjAddr: 0x12620, symBinAddr: 0x100017C04, symSize: 0x2C }
  - { offsetInCU: 0x20344, offset: 0x20344, size: 0x8, addend: 0x0, symName: __ZSt12__niter_baseIPSt6vectorISt7complexIdESaIS2_EEET_S6_, symObjAddr: 0x1260C, symBinAddr: 0x100017BF0, symSize: 0x14 }
  - { offsetInCU: 0x20375, offset: 0x20375, size: 0x8, addend: 0x0, symName: __ZNSt12_Destroy_auxILb0EE9__destroyIN9__gnu_cxx17__normal_iteratorIPSt6vectorISt7complexIdESaIS6_EES4_IS8_SaIS8_EEEEEEvT_SD_, symObjAddr: 0x125B8, symBinAddr: 0x100017B9C, symSize: 0x54 }
  - { offsetInCU: 0x203B4, offset: 0x203B4, size: 0x8, addend: 0x0, symName: __ZSt12__niter_wrapIN9__gnu_cxx17__normal_iteratorIPSt6vectorISt7complexIdESaIS4_EES2_IS6_SaIS6_EEEES7_ET_SB_T0_, symObjAddr: 0x12570, symBinAddr: 0x100017B54, symSize: 0x48 }
  - { offsetInCU: 0x203FE, offset: 0x203FE, size: 0x8, addend: 0x0, symName: __ZSt14__copy_move_a1ILb0EPKSt6vectorISt7complexIdESaIS2_EEPS4_ET1_T0_S9_S8_, symObjAddr: 0x12544, symBinAddr: 0x100017B28, symSize: 0x2C }
  - { offsetInCU: 0x20462, offset: 0x20462, size: 0x8, addend: 0x0, symName: __ZSt12__niter_baseIPSt6vectorISt7complexIdESaIS2_EES0_IS4_SaIS4_EEET_N9__gnu_cxx17__normal_iteratorIS8_T0_EE, symObjAddr: 0x12524, symBinAddr: 0x100017B08, symSize: 0x20 }
  - { offsetInCU: 0x2049C, offset: 0x2049C, size: 0x8, addend: 0x0, symName: __ZSt12__niter_baseIPKSt6vectorISt7complexIdESaIS2_EES0_IS4_SaIS4_EEET_N9__gnu_cxx17__normal_iteratorIS9_T0_EE, symObjAddr: 0x12504, symBinAddr: 0x100017AE8, symSize: 0x20 }
  - { offsetInCU: 0x204D6, offset: 0x204D6, size: 0x8, addend: 0x0, symName: __ZSt18uninitialized_copyIN9__gnu_cxx17__normal_iteratorIPKSt6vectorISt7complexIdESaIS4_EES2_IS6_SaIS6_EEEEPS6_ET0_T_SE_SD_, symObjAddr: 0x124D0, symBinAddr: 0x100017AB4, symSize: 0x34 }
  - { offsetInCU: 0x2054B, offset: 0x2054B, size: 0x8, addend: 0x0, symName: __ZNSt20__uninitialized_copyILb0EE13__uninit_copyIPSt6vectorIS2_IiSaIiEESaIS4_EES7_EET0_T_S9_S8_, symObjAddr: 0x124A4, symBinAddr: 0x100017A88, symSize: 0x2C }
  - { offsetInCU: 0x205A2, offset: 0x205A2, size: 0x8, addend: 0x0, symName: __ZSt12__niter_wrapIPSt6vectorIS0_IiSaIiEESaIS2_EEET_RKS6_S6_, symObjAddr: 0x1248C, symBinAddr: 0x100017A70, symSize: 0x18 }
  - { offsetInCU: 0x205DB, offset: 0x205DB, size: 0x8, addend: 0x0, symName: __ZSt14__copy_move_a1ILb0EPSt6vectorIS0_IiSaIiEESaIS2_EES5_ET1_T0_S7_S6_, symObjAddr: 0x12460, symBinAddr: 0x100017A44, symSize: 0x2C }
  - { offsetInCU: 0x2063F, offset: 0x2063F, size: 0x8, addend: 0x0, symName: __ZSt12__niter_baseIPSt6vectorIS0_IiSaIiEESaIS2_EEET_S6_, symObjAddr: 0x1244C, symBinAddr: 0x100017A30, symSize: 0x14 }
  - { offsetInCU: 0x20670, offset: 0x20670, size: 0x8, addend: 0x0, symName: __ZNSt12_Destroy_auxILb0EE9__destroyIN9__gnu_cxx17__normal_iteratorIPSt6vectorIS4_IiSaIiEESaIS6_EES4_IS8_SaIS8_EEEEEEvT_SD_, symObjAddr: 0x123F8, symBinAddr: 0x1000179DC, symSize: 0x54 }
  - { offsetInCU: 0x206AF, offset: 0x206AF, size: 0x8, addend: 0x0, symName: __ZSt12__niter_wrapIN9__gnu_cxx17__normal_iteratorIPSt6vectorIS2_IiSaIiEESaIS4_EES2_IS6_SaIS6_EEEES7_ET_SB_T0_, symObjAddr: 0x123B0, symBinAddr: 0x100017994, symSize: 0x48 }
  - { offsetInCU: 0x206F9, offset: 0x206F9, size: 0x8, addend: 0x0, symName: __ZSt14__copy_move_a1ILb0EPKSt6vectorIS0_IiSaIiEESaIS2_EEPS4_ET1_T0_S9_S8_, symObjAddr: 0x12384, symBinAddr: 0x100017968, symSize: 0x2C }
  - { offsetInCU: 0x2075D, offset: 0x2075D, size: 0x8, addend: 0x0, symName: __ZSt12__niter_baseIPSt6vectorIS0_IiSaIiEESaIS2_EES0_IS4_SaIS4_EEET_N9__gnu_cxx17__normal_iteratorIS8_T0_EE, symObjAddr: 0x12364, symBinAddr: 0x100017948, symSize: 0x20 }
  - { offsetInCU: 0x20797, offset: 0x20797, size: 0x8, addend: 0x0, symName: __ZSt12__niter_baseIPKSt6vectorIS0_IiSaIiEESaIS2_EES0_IS4_SaIS4_EEET_N9__gnu_cxx17__normal_iteratorIS9_T0_EE, symObjAddr: 0x12344, symBinAddr: 0x100017928, symSize: 0x20 }
  - { offsetInCU: 0x207D1, offset: 0x207D1, size: 0x8, addend: 0x0, symName: __ZSt18uninitialized_copyIN9__gnu_cxx17__normal_iteratorIPKSt6vectorIS2_IiSaIiEESaIS4_EES2_IS6_SaIS6_EEEEPS6_ET0_T_SE_SD_, symObjAddr: 0x12310, symBinAddr: 0x1000178F4, symSize: 0x34 }
  - { offsetInCU: 0x20870, offset: 0x20870, size: 0x8, addend: 0x0, symName: __ZSt4moveIRSaISt7complexIdEEEONSt16remove_referenceIT_E4typeEOS5_, symObjAddr: 0x122FC, symBinAddr: 0x1000178E0, symSize: 0x14 }
  - { offsetInCU: 0x208A4, offset: 0x208A4, size: 0x8, addend: 0x0, symName: __ZNSt12_Vector_baseISt7complexIdESaIS1_EE17_Vector_impl_data12_M_copy_dataERKS4_, symObjAddr: 0x122B4, symBinAddr: 0x100017898, symSize: 0x48 }
  - { offsetInCU: 0x208DD, offset: 0x208DD, size: 0x8, addend: 0x0, symName: __ZSt4moveIRSaISt6vectorIdSaIdEEEEONSt16remove_referenceIT_E4typeEOS6_, symObjAddr: 0x122A0, symBinAddr: 0x100017884, symSize: 0x14 }
  - { offsetInCU: 0x20911, offset: 0x20911, size: 0x8, addend: 0x0, symName: __ZNSt12_Vector_baseISt6vectorIdSaIdEESaIS2_EE17_Vector_impl_data12_M_copy_dataERKS5_, symObjAddr: 0x12258, symBinAddr: 0x10001783C, symSize: 0x48 }
  - { offsetInCU: 0x209A0, offset: 0x209A0, size: 0x8, addend: 0x0, symName: __ZNSt12_Vector_baseISt6vectorIdSaIdEESaIS2_EEC2ERKS3_, symObjAddr: 0x12230, symBinAddr: 0x100017814, symSize: 0x28 }
  - { offsetInCU: 0x2099F, offset: 0x2099F, size: 0x8, addend: 0x0, symName: __ZSt4moveIRSaISt6vectorIS0_IiSaIiEESaIS2_EEEEONSt16remove_referenceIT_E4typeEOS8_, symObjAddr: 0x1221C, symBinAddr: 0x100017800, symSize: 0x14 }
  - { offsetInCU: 0x209D3, offset: 0x209D3, size: 0x8, addend: 0x0, symName: __ZNSt12_Vector_baseISt6vectorIS0_IiSaIiEESaIS2_EESaIS4_EE17_Vector_impl_data12_M_copy_dataERKS7_, symObjAddr: 0x121D4, symBinAddr: 0x1000177B8, symSize: 0x48 }
  - { offsetInCU: 0x20A6E, offset: 0x20A6E, size: 0x8, addend: 0x0, symName: __ZNSt12_Vector_baseISt6vectorIS0_IiSaIiEESaIS2_EESaIS4_EEC2ERKS5_, symObjAddr: 0x121AC, symBinAddr: 0x100017790, symSize: 0x28 }
  - { offsetInCU: 0x20A61, offset: 0x20A61, size: 0x8, addend: 0x0, symName: __ZSt4moveIRSaISt6vectorISt7complexIdESaIS2_EEEEONSt16remove_referenceIT_E4typeEOS8_, symObjAddr: 0x12198, symBinAddr: 0x10001777C, symSize: 0x14 }
  - { offsetInCU: 0x20A95, offset: 0x20A95, size: 0x8, addend: 0x0, symName: __ZNSt12_Vector_baseISt6vectorISt7complexIdESaIS2_EESaIS4_EE17_Vector_impl_data12_M_copy_dataERKS7_, symObjAddr: 0x12150, symBinAddr: 0x100017734, symSize: 0x48 }
  - { offsetInCU: 0x20B32, offset: 0x20B32, size: 0x8, addend: 0x0, symName: __ZNSt12_Vector_baseISt6vectorISt7complexIdESaIS2_EESaIS4_EEC2ERKS5_, symObjAddr: 0x12128, symBinAddr: 0x10001770C, symSize: 0x28 }
  - { offsetInCU: 0x20B23, offset: 0x20B23, size: 0x8, addend: 0x0, symName: __ZSt4moveIRSaISt6vectorIiSaIiEEEEONSt16remove_referenceIT_E4typeEOS6_, symObjAddr: 0x12114, symBinAddr: 0x1000176F8, symSize: 0x14 }
  - { offsetInCU: 0x20B57, offset: 0x20B57, size: 0x8, addend: 0x0, symName: __ZNSt12_Vector_baseISt6vectorIiSaIiEESaIS2_EE17_Vector_impl_data12_M_copy_dataERKS5_, symObjAddr: 0x120CC, symBinAddr: 0x1000176B0, symSize: 0x48 }
  - { offsetInCU: 0x20B8A, offset: 0x20B8A, size: 0x8, addend: 0x0, symName: __ZNSt20__uninitialized_copyILb0EE13__uninit_copyIPSt6vectorIiSaIiEES5_EET0_T_S7_S6_, symObjAddr: 0x120A0, symBinAddr: 0x100017684, symSize: 0x2C }
  - { offsetInCU: 0x20BE1, offset: 0x20BE1, size: 0x8, addend: 0x0, symName: __ZSt12__niter_wrapIPSt6vectorIiSaIiEEET_RKS4_S4_, symObjAddr: 0x12088, symBinAddr: 0x10001766C, symSize: 0x18 }
  - { offsetInCU: 0x20C1A, offset: 0x20C1A, size: 0x8, addend: 0x0, symName: __ZSt14__copy_move_a1ILb0EPSt6vectorIiSaIiEES3_ET1_T0_S5_S4_, symObjAddr: 0x1205C, symBinAddr: 0x100017640, symSize: 0x2C }
  - { offsetInCU: 0x20C7E, offset: 0x20C7E, size: 0x8, addend: 0x0, symName: __ZSt12__niter_baseIPSt6vectorIiSaIiEEET_S4_, symObjAddr: 0x12048, symBinAddr: 0x10001762C, symSize: 0x14 }
  - { offsetInCU: 0x20CAF, offset: 0x20CAF, size: 0x8, addend: 0x0, symName: __ZNSt12_Destroy_auxILb0EE9__destroyIN9__gnu_cxx17__normal_iteratorIPSt6vectorIiSaIiEES4_IS6_SaIS6_EEEEEEvT_SB_, symObjAddr: 0x11FF4, symBinAddr: 0x1000175D8, symSize: 0x54 }
  - { offsetInCU: 0x20CEE, offset: 0x20CEE, size: 0x8, addend: 0x0, symName: __ZSt12__niter_wrapIN9__gnu_cxx17__normal_iteratorIPSt6vectorIiSaIiEES2_IS4_SaIS4_EEEES5_ET_S9_T0_, symObjAddr: 0x11FAC, symBinAddr: 0x100017590, symSize: 0x48 }
  - { offsetInCU: 0x20D38, offset: 0x20D38, size: 0x8, addend: 0x0, symName: __ZSt14__copy_move_a1ILb0EPKSt6vectorIiSaIiEEPS2_ET1_T0_S7_S6_, symObjAddr: 0x11F80, symBinAddr: 0x100017564, symSize: 0x2C }
  - { offsetInCU: 0x20D9C, offset: 0x20D9C, size: 0x8, addend: 0x0, symName: __ZSt12__niter_baseIPSt6vectorIiSaIiEES0_IS2_SaIS2_EEET_N9__gnu_cxx17__normal_iteratorIS6_T0_EE, symObjAddr: 0x11F60, symBinAddr: 0x100017544, symSize: 0x20 }
  - { offsetInCU: 0x20DD6, offset: 0x20DD6, size: 0x8, addend: 0x0, symName: __ZSt12__niter_baseIPKSt6vectorIiSaIiEES0_IS2_SaIS2_EEET_N9__gnu_cxx17__normal_iteratorIS7_T0_EE, symObjAddr: 0x11F40, symBinAddr: 0x100017524, symSize: 0x20 }
  - { offsetInCU: 0x20E10, offset: 0x20E10, size: 0x8, addend: 0x0, symName: __ZSt9__find_ifIN9__gnu_cxx17__normal_iteratorIPiSt6vectorIiSaIiEEEENS0_5__ops12_Iter_negateIZ19remove_wrong_cyclesRS3_IS5_SaIS5_EERKSA_EUliE_EEET_SG_SG_T0_St26random_access_iterator_tag, symObjAddr: 0x11DA4, symBinAddr: 0x100017388, symSize: 0x19C }
  - { offsetInCU: 0x20E82, offset: 0x20E82, size: 0x8, addend: 0x0, symName: __ZN9__gnu_cxx5__ops8__negateIZ19remove_wrong_cyclesRSt6vectorIS2_IiSaIiEESaIS4_EERKS6_EUliE_EENS0_12_Iter_negateIT_EENS0_10_Iter_predISC_EE, symObjAddr: 0x11D6C, symBinAddr: 0x100017350, symSize: 0x38 }
  - { offsetInCU: 0x20EDA, offset: 0x20EDA, size: 0x8, addend: 0x0, symName: __ZN9__gnu_cxx5__ops10_Iter_predIZ19remove_wrong_cyclesRSt6vectorIS2_IiSaIiEESaIS4_EERKS6_EUliE_EC1ESA_, symObjAddr: 0x11D48, symBinAddr: 0x10001732C, symSize: 0x24 }
  - { offsetInCU: 0x20F0A, offset: 0x20F0A, size: 0x8, addend: 0x0, symName: __ZSt4moveIRZ19remove_wrong_cyclesRSt6vectorIS0_IiSaIiEESaIS2_EERKS4_EUliE_EONSt16remove_referenceIT_E4typeEOSB_, symObjAddr: 0x11D34, symBinAddr: 0x100017318, symSize: 0x14 }
  - { offsetInCU: 0x20F3A, offset: 0x20F3A, size: 0x8, addend: 0x0, symName: __ZSt20uninitialized_fill_nIPSt6vectorIiSaIiEEmS2_ET_S4_T0_RKT1_, symObjAddr: 0x11D04, symBinAddr: 0x1000172E8, symSize: 0x30 }
  - { offsetInCU: 0x20FC3, offset: 0x20FC3, size: 0x8, addend: 0x0, symName: __ZSt25__uninitialized_default_nIPimET_S1_T0_, symObjAddr: 0x11CD8, symBinAddr: 0x1000172BC, symSize: 0x2C }
  - { offsetInCU: 0x21022, offset: 0x21022, size: 0x8, addend: 0x0, symName: __ZNK9__gnu_cxx17__normal_iteratorIPSt6vectorIS1_IiSaIiEESaIS3_EES1_IS5_SaIS5_EEEdeEv, symObjAddr: 0x11CC0, symBinAddr: 0x1000172A4, symSize: 0x18 }
  - { offsetInCU: 0x2104A, offset: 0x2104A, size: 0x8, addend: 0x0, symName: __ZNK9__gnu_cxx17__normal_iteratorIPSt6vectorIS1_IiSaIiEESaIS3_EES1_IS5_SaIS5_EEEmiEl, symObjAddr: 0x11C70, symBinAddr: 0x100017254, symSize: 0x50 }
  - { offsetInCU: 0x210AF, offset: 0x210AF, size: 0x8, addend: 0x0, symName: __ZNK9__gnu_cxx17__normal_iteratorIPSt6vectorIS1_IiSaIiEESaIS3_EES1_IS5_SaIS5_EEE4baseEv, symObjAddr: 0x11C5C, symBinAddr: 0x100017240, symSize: 0x14 }
  - { offsetInCU: 0x210D3, offset: 0x210D3, size: 0x8, addend: 0x0, symName: __ZNSt6vectorIS_IS_IiSaIiEESaIS1_EESaIS3_EE11_S_relocateEPS3_S6_S6_RS4_, symObjAddr: 0x11C28, symBinAddr: 0x10001720C, symSize: 0x34 }
  - { offsetInCU: 0x2112B, offset: 0x2112B, size: 0x8, addend: 0x0, symName: __ZN9__gnu_cxxmiIPSt6vectorIS1_IiSaIiEESaIS3_EES1_IS5_SaIS5_EEEENS_17__normal_iteratorIT_T0_E15difference_typeERKSC_SF_, symObjAddr: 0x11BDC, symBinAddr: 0x1000171C0, symSize: 0x4C }
  - { offsetInCU: 0x21179, offset: 0x21179, size: 0x8, addend: 0x0, symName: __ZNKSt6vectorIS_IS_IiSaIiEESaIS1_EESaIS3_EE12_M_check_lenEmPKc, symObjAddr: 0x11B0C, symBinAddr: 0x1000170F0, symSize: 0xD0 }
  - { offsetInCU: 0x21210, offset: 0x21210, size: 0x8, addend: 0x0, symName: __ZNK9__gnu_cxx17__normal_iteratorIPSt6vectorISt7complexIdESaIS3_EES1_IS5_SaIS5_EEEdeEv, symObjAddr: 0x11AF4, symBinAddr: 0x1000170D8, symSize: 0x18 }
  - { offsetInCU: 0x21238, offset: 0x21238, size: 0x8, addend: 0x0, symName: __ZNK9__gnu_cxx17__normal_iteratorIPSt6vectorISt7complexIdESaIS3_EES1_IS5_SaIS5_EEEmiEl, symObjAddr: 0x11AA4, symBinAddr: 0x100017088, symSize: 0x50 }
  - { offsetInCU: 0x212AB, offset: 0x212AB, size: 0x8, addend: 0x0, symName: __ZSt18uninitialized_copyIPKSt7complexIdEPS1_ET0_T_S6_S5_, symObjAddr: 0x11A70, symBinAddr: 0x100017054, symSize: 0x34 }
  - { offsetInCU: 0x21320, offset: 0x21320, size: 0x8, addend: 0x0, symName: __ZNSt6vectorISt7complexIdESaIS1_EE11_S_max_sizeERKS2_, symObjAddr: 0x11A1C, symBinAddr: 0x100017000, symSize: 0x54 }
  - { offsetInCU: 0x213FD, offset: 0x213FD, size: 0x8, addend: 0x0, symName: __ZSt12__relocate_aIPSt7complexIdES2_SaIS1_EET0_T_S5_S4_RT1_, symObjAddr: 0x119C0, symBinAddr: 0x100016FA4, symSize: 0x5C }
  - { offsetInCU: 0x21498, offset: 0x21498, size: 0x8, addend: 0x0, symName: __ZNKSt6vectorISt7complexIdESaIS1_EE8max_sizeEv, symObjAddr: 0x119A0, symBinAddr: 0x100016F84, symSize: 0x20 }
  - { offsetInCU: 0x214C2, offset: 0x214C2, size: 0x8, addend: 0x0, symName: __ZSt4moveIRSaIdEEONSt16remove_referenceIT_E4typeEOS3_, symObjAddr: 0x1198C, symBinAddr: 0x100016F70, symSize: 0x14 }
  - { offsetInCU: 0x214F2, offset: 0x214F2, size: 0x8, addend: 0x0, symName: __ZNSt12_Destroy_auxILb0EE9__destroyIPNSt7__cxx1112basic_stringIcSt11char_traitsIcESaIcEEEEEvT_S9_, symObjAddr: 0x11940, symBinAddr: 0x100016F24, symSize: 0x4C }
  - { offsetInCU: 0x21535, offset: 0x21535, size: 0x8, addend: 0x0, symName: __ZNSt6vectorINSt7__cxx1112basic_stringIcSt11char_traitsIcESaIcEEESaIS5_EE15_M_erase_at_endEPS5_, symObjAddr: 0x118B8, symBinAddr: 0x100016E9C, symSize: 0x88 }
  - { offsetInCU: 0x215C6, offset: 0x215C6, size: 0x8, addend: 0x0, symName: __ZNSt6vectorINSt7__cxx1112basic_stringIcSt11char_traitsIcESaIcEEESaIS5_EE4backEv, symObjAddr: 0x11880, symBinAddr: 0x100016E64, symSize: 0x38 }
  - { offsetInCU: 0x215EE, offset: 0x215EE, size: 0x8, addend: 0x0, symName: __ZNSt6vectorINSt7__cxx1112basic_stringIcSt11char_traitsIcESaIcEEESaIS5_EE17_M_realloc_insertIJRKS5_EEEvN9__gnu_cxx17__normal_iteratorIPS5_S7_EEDpOT_, symObjAddr: 0x115F0, symBinAddr: 0x100016BD4, symSize: 0x290 }
  - { offsetInCU: 0x217A2, offset: 0x217A2, size: 0x8, addend: 0x0, symName: __ZNSt6vectorINSt7__cxx1112basic_stringIcSt11char_traitsIcESaIcEEESaIS5_EE3endEv, symObjAddr: 0x115C8, symBinAddr: 0x100016BAC, symSize: 0x28 }
  - { offsetInCU: 0x21810, offset: 0x21810, size: 0x8, addend: 0x0, symName: __ZSt7forwardIRKNSt7__cxx1112basic_stringIcSt11char_traitsIcESaIcEEEEOT_RNSt16remove_referenceIS8_E4typeE, symObjAddr: 0x115B4, symBinAddr: 0x100016B98, symSize: 0x14 }
  - { offsetInCU: 0x21844, offset: 0x21844, size: 0x8, addend: 0x0, symName: __ZNKSt16istream_iteratorINSt7__cxx1112basic_stringIcSt11char_traitsIcESaIcEEEcS3_lE8_M_equalERKS6_, symObjAddr: 0x11548, symBinAddr: 0x100016B2C, symSize: 0x6C }
  - { offsetInCU: 0x21929, offset: 0x21929, size: 0x8, addend: 0x0, symName: __ZNSt12_Vector_baseINSt7__cxx1112basic_stringIcSt11char_traitsIcESaIcEEESaIS5_EE17_Vector_impl_dataC2Ev, symObjAddr: 0x1151C, symBinAddr: 0x100016B00, symSize: 0x2C }
  - { offsetInCU: 0x21908, offset: 0x21908, size: 0x8, addend: 0x0, symName: __ZNSt12_Destroy_auxILb0EE9__destroyIPSt6vectorIS2_IiSaIiEESaIS4_EEEEvT_S8_, symObjAddr: 0x114D0, symBinAddr: 0x100016AB4, symSize: 0x4C }
  - { offsetInCU: 0x2194B, offset: 0x2194B, size: 0x8, addend: 0x0, symName: __ZNSt15__new_allocatorISt6vectorIS0_IiSaIiEESaIS2_EEE10deallocateEPS4_m, symObjAddr: 0x11494, symBinAddr: 0x100016A78, symSize: 0x3C }
  - { offsetInCU: 0x219B7, offset: 0x219B7, size: 0x8, addend: 0x0, symName: __ZSt12__relocate_aIPSt6vectorISt7complexIdESaIS2_EES5_SaIS4_EET0_T_S8_S7_RT1_, symObjAddr: 0x11438, symBinAddr: 0x100016A1C, symSize: 0x5C }
  - { offsetInCU: 0x21A52, offset: 0x21A52, size: 0x8, addend: 0x0, symName: __ZNKSt6vectorIS_ISt7complexIdESaIS1_EESaIS3_EE8max_sizeEv, symObjAddr: 0x11418, symBinAddr: 0x1000169FC, symSize: 0x20 }
  - { offsetInCU: 0x21A7A, offset: 0x21A7A, size: 0x8, addend: 0x0, symName: __ZNK9__gnu_cxx17__normal_iteratorIPSt7complexIdESt6vectorIS2_SaIS2_EEEdeEv, symObjAddr: 0x11400, symBinAddr: 0x1000169E4, symSize: 0x18 }
  - { offsetInCU: 0x21AA2, offset: 0x21AA2, size: 0x8, addend: 0x0, symName: __ZNK9__gnu_cxx17__normal_iteratorIPSt7complexIdESt6vectorIS2_SaIS2_EEEmiEl, symObjAddr: 0x113BC, symBinAddr: 0x1000169A0, symSize: 0x44 }
  - { offsetInCU: 0x21B15, offset: 0x21B15, size: 0x8, addend: 0x0, symName: __ZNSt12_Destroy_auxILb1EE9__destroyIPSt7complexIdEEEvT_S5_, symObjAddr: 0x113A4, symBinAddr: 0x100016988, symSize: 0x18 }
  - { offsetInCU: 0x21B4A, offset: 0x21B4A, size: 0x8, addend: 0x0, symName: __ZNSt15__new_allocatorISt7complexIdEE10deallocateEPS1_m, symObjAddr: 0x11374, symBinAddr: 0x100016958, symSize: 0x30 }
  - { offsetInCU: 0x21B8C, offset: 0x21B8C, size: 0x8, addend: 0x0, symName: __ZSt18uninitialized_copyIN9__gnu_cxx17__normal_iteratorIPdSt6vectorIdSaIdEEEES2_ET0_T_S8_S7_, symObjAddr: 0x11338, symBinAddr: 0x10001691C, symSize: 0x3C }
  - { offsetInCU: 0x21C25, offset: 0x21C25, size: 0x8, addend: 0x0, symName: __ZNSt12_Destroy_auxILb0EE9__destroyIPSt6vectorISt7complexIdESaIS4_EEEEvT_S8_, symObjAddr: 0x112EC, symBinAddr: 0x1000168D0, symSize: 0x4C }
  - { offsetInCU: 0x21C68, offset: 0x21C68, size: 0x8, addend: 0x0, symName: __ZNSt15__new_allocatorISt6vectorISt7complexIdESaIS2_EEE10deallocateEPS4_m, symObjAddr: 0x112B0, symBinAddr: 0x100016894, symSize: 0x3C }
  - { offsetInCU: 0x21CAE, offset: 0x21CAE, size: 0x8, addend: 0x0, symName: __ZNK9__gnu_cxx17__normal_iteratorIPdSt6vectorIdSaIdEEEdeEv, symObjAddr: 0x11298, symBinAddr: 0x10001687C, symSize: 0x18 }
  - { offsetInCU: 0x21CD6, offset: 0x21CD6, size: 0x8, addend: 0x0, symName: __ZNK9__gnu_cxx17__normal_iteratorIPdSt6vectorIdSaIdEEEmiEl, symObjAddr: 0x11254, symBinAddr: 0x100016838, symSize: 0x44 }
  - { offsetInCU: 0x21D0E, offset: 0x21D0E, size: 0x8, addend: 0x0, symName: __ZNK9__gnu_cxx17__normal_iteratorIPdSt6vectorIdSaIdEEE4baseEv, symObjAddr: 0x11240, symBinAddr: 0x100016824, symSize: 0x14 }
  - { offsetInCU: 0x21D32, offset: 0x21D32, size: 0x8, addend: 0x0, symName: __ZNSt6vectorIdSaIdEE11_S_relocateEPdS2_S2_RS0_, symObjAddr: 0x1120C, symBinAddr: 0x1000167F0, symSize: 0x34 }
  - { offsetInCU: 0x21D90, offset: 0x21D90, size: 0x8, addend: 0x0, symName: __ZN9__gnu_cxxmiIPdSt6vectorIdSaIdEEEENS_17__normal_iteratorIT_T0_E15difference_typeERKS8_SB_, symObjAddr: 0x111CC, symBinAddr: 0x1000167B0, symSize: 0x40 }
  - { offsetInCU: 0x21DDE, offset: 0x21DDE, size: 0x8, addend: 0x0, symName: __ZNKSt6vectorIdSaIdEE12_M_check_lenEmPKc, symObjAddr: 0x110FC, symBinAddr: 0x1000166E0, symSize: 0xD0 }
  - { offsetInCU: 0x21E75, offset: 0x21E75, size: 0x8, addend: 0x0, symName: __ZNSt15__new_allocatorIdE10deallocateEPdm, symObjAddr: 0x110CC, symBinAddr: 0x1000166B0, symSize: 0x30 }
  - { offsetInCU: 0x21EB7, offset: 0x21EB7, size: 0x8, addend: 0x0, symName: __ZSt13__copy_move_aILb1EN9__gnu_cxx17__normal_iteratorIPiSt6vectorIiSaIiEEEES6_ET1_T0_S8_S7_, symObjAddr: 0x1106C, symBinAddr: 0x100016650, symSize: 0x60 }
  - { offsetInCU: 0x21F1B, offset: 0x21F1B, size: 0x8, addend: 0x0, symName: __ZSt12__miter_baseIN9__gnu_cxx17__normal_iteratorIPiSt6vectorIiSaIiEEEEET_S7_, symObjAddr: 0x11058, symBinAddr: 0x10001663C, symSize: 0x14 }
  - { offsetInCU: 0x21F4C, offset: 0x21F4C, size: 0x8, addend: 0x0, symName: __ZSt26__unguarded_insertion_sortIN9__gnu_cxx17__normal_iteratorIPiSt6vectorIiSaIiEEEENS0_5__ops15_Iter_less_iterEEvT_S9_T0_, symObjAddr: 0x10FEC, symBinAddr: 0x1000165D0, symSize: 0x6C }
  - { offsetInCU: 0x21FC9, offset: 0x21FC9, size: 0x8, addend: 0x0, symName: __ZSt16__insertion_sortIN9__gnu_cxx17__normal_iteratorIPiSt6vectorIiSaIiEEEENS0_5__ops15_Iter_less_iterEEvT_S9_T0_, symObjAddr: 0x10EF0, symBinAddr: 0x1000164D4, symSize: 0xFC }
  - { offsetInCU: 0x22069, offset: 0x22069, size: 0x8, addend: 0x0, symName: __ZSt27__unguarded_partition_pivotIN9__gnu_cxx17__normal_iteratorIPiSt6vectorIiSaIiEEEENS0_5__ops15_Iter_less_iterEET_S9_S9_T0_, symObjAddr: 0x10E4C, symBinAddr: 0x100016430, symSize: 0xA4 }
  - { offsetInCU: 0x220D3, offset: 0x220D3, size: 0x8, addend: 0x0, symName: __ZSt14__partial_sortIN9__gnu_cxx17__normal_iteratorIPiSt6vectorIiSaIiEEEENS0_5__ops15_Iter_less_iterEEvT_S9_S9_T0_, symObjAddr: 0x10E00, symBinAddr: 0x1000163E4, symSize: 0x4C }
  - { offsetInCU: 0x2213D, offset: 0x2213D, size: 0x8, addend: 0x0, symName: __ZNSt20__uninitialized_copyILb1EE13__uninit_copyIPiS2_EET0_T_S4_S3_, symObjAddr: 0x10DD4, symBinAddr: 0x1000163B8, symSize: 0x2C }
  - { offsetInCU: 0x22194, offset: 0x22194, size: 0x8, addend: 0x0, symName: __ZSt12__niter_wrapIPiET_RKS1_S1_, symObjAddr: 0x10DBC, symBinAddr: 0x1000163A0, symSize: 0x18 }
  - { offsetInCU: 0x221CD, offset: 0x221CD, size: 0x8, addend: 0x0, symName: __ZSt14__copy_move_a1ILb0EPiS0_ET1_T0_S2_S1_, symObjAddr: 0x10D90, symBinAddr: 0x100016374, symSize: 0x2C }
  - { offsetInCU: 0x22231, offset: 0x22231, size: 0x8, addend: 0x0, symName: __ZSt12__niter_baseIPiET_S1_, symObjAddr: 0x10D7C, symBinAddr: 0x100016360, symSize: 0x14 }
  - { offsetInCU: 0x22262, offset: 0x22262, size: 0x8, addend: 0x0, symName: __ZNSt12_Destroy_auxILb1EE9__destroyIN9__gnu_cxx17__normal_iteratorIPiSt6vectorIiSaIiEEEEEEvT_S9_, symObjAddr: 0x10D64, symBinAddr: 0x100016348, symSize: 0x18 }
  - { offsetInCU: 0x22293, offset: 0x22293, size: 0x8, addend: 0x0, symName: __ZSt12__niter_wrapIN9__gnu_cxx17__normal_iteratorIPiSt6vectorIiSaIiEEEES2_ET_S7_T0_, symObjAddr: 0x10D28, symBinAddr: 0x10001630C, symSize: 0x3C }
  - { offsetInCU: 0x222DD, offset: 0x222DD, size: 0x8, addend: 0x0, symName: __ZSt14__copy_move_a1ILb0EPKiPiET1_T0_S4_S3_, symObjAddr: 0x10CFC, symBinAddr: 0x1000162E0, symSize: 0x2C }
  - { offsetInCU: 0x22341, offset: 0x22341, size: 0x8, addend: 0x0, symName: __ZSt12__niter_baseIPiSt6vectorIiSaIiEEET_N9__gnu_cxx17__normal_iteratorIS4_T0_EE, symObjAddr: 0x10CDC, symBinAddr: 0x1000162C0, symSize: 0x20 }
  - { offsetInCU: 0x2237B, offset: 0x2237B, size: 0x8, addend: 0x0, symName: __ZSt12__niter_baseIPKiSt6vectorIiSaIiEEET_N9__gnu_cxx17__normal_iteratorIS5_T0_EE, symObjAddr: 0x10CBC, symBinAddr: 0x1000162A0, symSize: 0x20 }
  - { offsetInCU: 0x223BB, offset: 0x223BB, size: 0x8, addend: 0x0, symName: __ZSt4moveIRSaIiEEONSt16remove_referenceIT_E4typeEOS3_, symObjAddr: 0x10CA8, symBinAddr: 0x10001628C, symSize: 0x14 }
  - { offsetInCU: 0x223EB, offset: 0x223EB, size: 0x8, addend: 0x0, symName: __ZSt26__unguarded_insertion_sortIN9__gnu_cxx17__normal_iteratorIPSt6vectorIiSaIiEES2_IS4_SaIS4_EEEENS0_5__ops15_Iter_comp_iterIPFbRKS4_SC_EEEEvT_SG_T0_, symObjAddr: 0x10C44, symBinAddr: 0x100016228, symSize: 0x64 }
  - { offsetInCU: 0x22468, offset: 0x22468, size: 0x8, addend: 0x0, symName: __ZSt16__insertion_sortIN9__gnu_cxx17__normal_iteratorIPSt6vectorIiSaIiEES2_IS4_SaIS4_EEEENS0_5__ops15_Iter_comp_iterIPFbRKS4_SC_EEEEvT_SG_T0_, symObjAddr: 0x10B2C, symBinAddr: 0x100016110, symSize: 0x118 }
  - { offsetInCU: 0x224F4, offset: 0x224F4, size: 0x8, addend: 0x0, symName: __ZNK9__gnu_cxx17__normal_iteratorIPSt6vectorIiSaIiEES1_IS3_SaIS3_EEEplEl, symObjAddr: 0x10AE0, symBinAddr: 0x1000160C4, symSize: 0x4C }
  - { offsetInCU: 0x22528, offset: 0x22528, size: 0x8, addend: 0x0, symName: __ZSt27__unguarded_partition_pivotIN9__gnu_cxx17__normal_iteratorIPSt6vectorIiSaIiEES2_IS4_SaIS4_EEEENS0_5__ops15_Iter_comp_iterIPFbRKS4_SC_EEEET_SG_SG_T0_, symObjAddr: 0x10A44, symBinAddr: 0x100016028, symSize: 0x9C }
  - { offsetInCU: 0x22592, offset: 0x22592, size: 0x8, addend: 0x0, symName: __ZSt14__partial_sortIN9__gnu_cxx17__normal_iteratorIPSt6vectorIiSaIiEES2_IS4_SaIS4_EEEENS0_5__ops15_Iter_comp_iterIPFbRKS4_SC_EEEEvT_SG_SG_T0_, symObjAddr: 0x109F8, symBinAddr: 0x100015FDC, symSize: 0x4C }
  - { offsetInCU: 0x225FC, offset: 0x225FC, size: 0x8, addend: 0x0, symName: __ZSt11__bit_widthImEiT_, symObjAddr: 0x109C8, symBinAddr: 0x100015FAC, symSize: 0x30 }
  - { offsetInCU: 0x22642, offset: 0x22642, size: 0x8, addend: 0x0, symName: __ZNK9__gnu_cxx17__normal_iteratorIPiSt6vectorIiSaIiEEEmiEl, symObjAddr: 0x10984, symBinAddr: 0x100015F68, symSize: 0x44 }
  - { offsetInCU: 0x226B5, offset: 0x226B5, size: 0x8, addend: 0x0, symName: __ZNSt20__uninitialized_copyILb1EE13__uninit_copyIN9__gnu_cxx17__normal_iteratorIPKdSt6vectorIdSaIdEEEEPdEET0_T_SC_SB_, symObjAddr: 0x10958, symBinAddr: 0x100015F3C, symSize: 0x2C }
  - { offsetInCU: 0x22736, offset: 0x22736, size: 0x8, addend: 0x0, symName: __ZSt12__relocate_aIPSt6vectorIdSaIdEES3_SaIS2_EET0_T_S6_S5_RT1_, symObjAddr: 0x108FC, symBinAddr: 0x100015EE0, symSize: 0x5C }
  - { offsetInCU: 0x227D1, offset: 0x227D1, size: 0x8, addend: 0x0, symName: __ZNKSt6vectorIS_IdSaIdEESaIS1_EE8max_sizeEv, symObjAddr: 0x108DC, symBinAddr: 0x100015EC0, symSize: 0x20 }
  - { offsetInCU: 0x227F5, offset: 0x227F5, size: 0x8, addend: 0x0, symName: __ZNSt20__uninitialized_copyILb1EE13__uninit_copyIN9__gnu_cxx17__normal_iteratorIPKiSt6vectorIiSaIiEEEEPiEET0_T_SC_SB_, symObjAddr: 0x108B0, symBinAddr: 0x100015E94, symSize: 0x2C }
  - { offsetInCU: 0x22876, offset: 0x22876, size: 0x8, addend: 0x0, symName: __ZSt12__relocate_aIPSt6vectorIiSaIiEES3_SaIS2_EET0_T_S6_S5_RT1_, symObjAddr: 0x10854, symBinAddr: 0x100015E38, symSize: 0x5C }
  - { offsetInCU: 0x228ED, offset: 0x228ED, size: 0x8, addend: 0x0, symName: __ZNKSt6vectorIS_IiSaIiEESaIS1_EE8max_sizeEv, symObjAddr: 0x10834, symBinAddr: 0x100015E18, symSize: 0x20 }
  - { offsetInCU: 0x22915, offset: 0x22915, size: 0x8, addend: 0x0, symName: __ZN9__gnu_cxx5__ops16_Iter_equals_valIKiEclINS_17__normal_iteratorIPiSt6vectorIiSaIiEEEEEEbT_, symObjAddr: 0x107F8, symBinAddr: 0x100015DDC, symSize: 0x3C }
  - { offsetInCU: 0x22983, offset: 0x22983, size: 0x8, addend: 0x0, symName: __ZNSt12_Vector_baseIiSaIiEE17_Vector_impl_data12_M_copy_dataERKS2_, symObjAddr: 0x107B0, symBinAddr: 0x100015D94, symSize: 0x48 }
  - { offsetInCU: 0x229B6, offset: 0x229B6, size: 0x8, addend: 0x0, symName: __ZSt20uninitialized_fill_nIPimiET_S1_T0_RKT1_, symObjAddr: 0x1077C, symBinAddr: 0x100015D60, symSize: 0x34 }
  - { offsetInCU: 0x22A3F, offset: 0x22A3F, size: 0x8, addend: 0x0, symName: __ZSt18uninitialized_copyIPKSt6vectorIiSaIiEEPS2_ET0_T_S7_S6_, symObjAddr: 0x10748, symBinAddr: 0x100015D2C, symSize: 0x34 }
  - { offsetInCU: 0x22AD8, offset: 0x22AD8, size: 0x8, addend: 0x0, symName: __ZSt18uninitialized_copyIPKiPiET0_T_S4_S3_, symObjAddr: 0x1070C, symBinAddr: 0x100015CF0, symSize: 0x3C }
  - { offsetInCU: 0x22B51, offset: 0x22B51, size: 0x8, addend: 0x0, symName: __ZNSt15__new_allocatorISt6vectorIiSaIiEEE10deallocateEPS2_m, symObjAddr: 0x106D0, symBinAddr: 0x100015CB4, symSize: 0x3C }
  - { offsetInCU: 0x22B93, offset: 0x22B93, size: 0x8, addend: 0x0, symName: __ZNSt12_Destroy_auxILb0EE9__destroyIPSt6vectorIiSaIiEEEEvT_S6_, symObjAddr: 0x10684, symBinAddr: 0x100015C68, symSize: 0x4C }
  - { offsetInCU: 0x22BD2, offset: 0x22BD2, size: 0x8, addend: 0x0, symName: __ZNSt20__uninitialized_copyILb0EE13__uninit_copyIN9__gnu_cxx17__normal_iteratorIPKSt6vectorIiSaIiEES4_IS6_SaIS6_EEEEPS6_EET0_T_SE_SD_, symObjAddr: 0x10658, symBinAddr: 0x100015C3C, symSize: 0x2C }
  - { offsetInCU: 0x22C53, offset: 0x22C53, size: 0x8, addend: 0x0, symName: __ZSt12__relocate_aIPiS0_SaIiEET0_T_S3_S2_RT1_, symObjAddr: 0x105FC, symBinAddr: 0x100015BE0, symSize: 0x5C }
  - { offsetInCU: 0x22CF0, offset: 0x22CF0, size: 0x8, addend: 0x0, symName: __ZSt3maxImERKT_S2_S2_, symObjAddr: 0x105C4, symBinAddr: 0x100015BA8, symSize: 0x38 }
  - { offsetInCU: 0x22D35, offset: 0x22D35, size: 0x8, addend: 0x0, symName: __ZNKSt6vectorIiSaIiEE8max_sizeEv, symObjAddr: 0x105A4, symBinAddr: 0x100015B88, symSize: 0x20 }
  - { offsetInCU: 0x22D59, offset: 0x22D59, size: 0x8, addend: 0x0, symName: __ZNSt12_Destroy_auxILb1EE9__destroyIPiEEvT_S3_, symObjAddr: 0x1058C, symBinAddr: 0x100015B70, symSize: 0x18 }
  - { offsetInCU: 0x22D8E, offset: 0x22D8E, size: 0x8, addend: 0x0, symName: __ZNSt15__new_allocatorIiE10deallocateEPim, symObjAddr: 0x1055C, symBinAddr: 0x100015B40, symSize: 0x30 }
  - { offsetInCU: 0x22DD4, offset: 0x22DD4, size: 0x8, addend: 0x0, symName: __ZNSt15__new_allocatorISt6vectorIdSaIdEEE10deallocateEPS2_m, symObjAddr: 0x10520, symBinAddr: 0x100015B04, symSize: 0x3C }
  - { offsetInCU: 0x22E16, offset: 0x22E16, size: 0x8, addend: 0x0, symName: __ZSt20uninitialized_fill_nIPSt6vectorIdSaIdEEmS2_ET_S4_T0_RKT1_, symObjAddr: 0x104F0, symBinAddr: 0x100015AD4, symSize: 0x30 }
  - { offsetInCU: 0x22E9F, offset: 0x22E9F, size: 0x8, addend: 0x0, symName: __ZNSt12_Destroy_auxILb1EE9__destroyIPdEEvT_S3_, symObjAddr: 0x104D8, symBinAddr: 0x100015ABC, symSize: 0x18 }
  - { offsetInCU: 0x22ED0, offset: 0x22ED0, size: 0x8, addend: 0x0, symName: __ZSt20uninitialized_fill_nIPdmdET_S1_T0_RKT1_, symObjAddr: 0x104A4, symBinAddr: 0x100015A88, symSize: 0x34 }
  - { offsetInCU: 0x22F43, offset: 0x22F43, size: 0x8, addend: 0x0, symName: __ZSt3minImERKT_S2_S2_, symObjAddr: 0x1046C, symBinAddr: 0x100015A50, symSize: 0x38 }
  - { offsetInCU: 0x22F98, offset: 0x22F98, size: 0x8, addend: 0x0, symName: __ZNSt12_Destroy_auxILb0EE9__destroyIPSt6vectorIdSaIdEEEEvT_S6_, symObjAddr: 0x10420, symBinAddr: 0x100015A04, symSize: 0x4C }
  - { offsetInCU: 0x22FD7, offset: 0x22FD7, size: 0x8, addend: 0x0, symName: __ZNSt20__uninitialized_copyILb0EE13__uninit_copyIN9__gnu_cxx17__normal_iteratorIPKSt6vectorIdSaIdEES4_IS6_SaIS6_EEEEPS6_EET0_T_SE_SD_, symObjAddr: 0x103F4, symBinAddr: 0x1000159D8, symSize: 0x2C }
  - { offsetInCU: 0x2305F, offset: 0x2305F, size: 0x8, addend: 0x0, symName: __ZNSt12_Vector_baseIdSaIdEE17_Vector_impl_data12_M_copy_dataERKS2_, symObjAddr: 0x103AC, symBinAddr: 0x100015990, symSize: 0x48 }
  - { offsetInCU: 0x230D8, offset: 0x230D8, size: 0x8, addend: 0x0, symName: __ZSt18uninitialized_copyIN9__gnu_cxx17__normal_iteratorIPKSt7complexIdESt6vectorIS3_SaIS3_EEEEPS3_ET0_T_SC_SB_, symObjAddr: 0x10378, symBinAddr: 0x10001595C, symSize: 0x34 }
  - { offsetInCU: 0x231C2, offset: 0x231C2, size: 0x8, addend: 0x0, symName: __ZN9__gnu_cxx17__normal_iteratorIPKSt7complexIdESt6vectorIS2_SaIS2_EEEC1ERKS4_, symObjAddr: 0x10350, symBinAddr: 0x100015934, symSize: 0x28 }
  - { offsetInCU: 0x231A6, offset: 0x231A6, size: 0x8, addend: 0x0, symName: __ZNSt12_Vector_baseISt7complexIdESaIS1_EE17_M_create_storageEm, symObjAddr: 0x102F0, symBinAddr: 0x1000158D4, symSize: 0x60 }
  - { offsetInCU: 0x231F0, offset: 0x231F0, size: 0x8, addend: 0x0, symName: __ZSt18uninitialized_copyIPSt6vectorISt7complexIdESaIS2_EES5_ET0_T_S7_S6_, symObjAddr: 0x102BC, symBinAddr: 0x1000158A0, symSize: 0x34 }
  - { offsetInCU: 0x23265, offset: 0x23265, size: 0x8, addend: 0x0, symName: __ZSt13__copy_move_aILb0EPSt6vectorISt7complexIdESaIS2_EES5_ET1_T0_S7_S6_, symObjAddr: 0x1025C, symBinAddr: 0x100015840, symSize: 0x60 }
  - { offsetInCU: 0x232C9, offset: 0x232C9, size: 0x8, addend: 0x0, symName: __ZSt12__miter_baseIPSt6vectorISt7complexIdESaIS2_EEET_S6_, symObjAddr: 0x10248, symBinAddr: 0x10001582C, symSize: 0x14 }
  - { offsetInCU: 0x232FA, offset: 0x232FA, size: 0x8, addend: 0x0, symName: __ZSt8_DestroyIN9__gnu_cxx17__normal_iteratorIPSt6vectorISt7complexIdESaIS4_EES2_IS6_SaIS6_EEEEEvT_SB_, symObjAddr: 0x10220, symBinAddr: 0x100015804, symSize: 0x28 }
  - { offsetInCU: 0x23339, offset: 0x23339, size: 0x8, addend: 0x0, symName: __ZSt13__copy_move_aILb0EN9__gnu_cxx17__normal_iteratorIPKSt6vectorISt7complexIdESaIS4_EES2_IS6_SaIS6_EEEENS1_IPS6_SA_EEET1_T0_SF_SE_, symObjAddr: 0x101C0, symBinAddr: 0x1000157A4, symSize: 0x60 }
  - { offsetInCU: 0x2339D, offset: 0x2339D, size: 0x8, addend: 0x0, symName: __ZSt12__miter_baseIN9__gnu_cxx17__normal_iteratorIPKSt6vectorISt7complexIdESaIS4_EES2_IS6_SaIS6_EEEEET_SC_, symObjAddr: 0x101AC, symBinAddr: 0x100015790, symSize: 0x14 }
  - { offsetInCU: 0x233CE, offset: 0x233CE, size: 0x8, addend: 0x0, symName: __ZSt22__uninitialized_copy_aIN9__gnu_cxx17__normal_iteratorIPKSt6vectorISt7complexIdESaIS4_EES2_IS6_SaIS6_EEEEPS6_S6_ET0_T_SE_SD_RSaIT1_E, symObjAddr: 0x1017C, symBinAddr: 0x100015760, symSize: 0x30 }
  - { offsetInCU: 0x234BA, offset: 0x234BA, size: 0x8, addend: 0x0, symName: __ZN9__gnu_cxx17__normal_iteratorIPKSt6vectorISt7complexIdESaIS3_EES1_IS5_SaIS5_EEEC1ERKS7_, symObjAddr: 0x10154, symBinAddr: 0x100015738, symSize: 0x28 }
  - { offsetInCU: 0x23492, offset: 0x23492, size: 0x8, addend: 0x0, symName: __ZNSt6vectorIS_ISt7complexIdESaIS1_EESaIS3_EE15_M_erase_at_endEPS3_, symObjAddr: 0x100C0, symBinAddr: 0x1000156A4, symSize: 0x94 }
  - { offsetInCU: 0x2351F, offset: 0x2351F, size: 0x8, addend: 0x0, symName: __ZSt18uninitialized_copyIPSt6vectorIS0_IiSaIiEESaIS2_EES5_ET0_T_S7_S6_, symObjAddr: 0x1008C, symBinAddr: 0x100015670, symSize: 0x34 }
  - { offsetInCU: 0x23594, offset: 0x23594, size: 0x8, addend: 0x0, symName: __ZSt13__copy_move_aILb0EPSt6vectorIS0_IiSaIiEESaIS2_EES5_ET1_T0_S7_S6_, symObjAddr: 0x1002C, symBinAddr: 0x100015610, symSize: 0x60 }
  - { offsetInCU: 0x235F8, offset: 0x235F8, size: 0x8, addend: 0x0, symName: __ZSt12__miter_baseIPSt6vectorIS0_IiSaIiEESaIS2_EEET_S6_, symObjAddr: 0x10018, symBinAddr: 0x1000155FC, symSize: 0x14 }
  - { offsetInCU: 0x23629, offset: 0x23629, size: 0x8, addend: 0x0, symName: __ZSt8_DestroyIN9__gnu_cxx17__normal_iteratorIPSt6vectorIS2_IiSaIiEESaIS4_EES2_IS6_SaIS6_EEEEEvT_SB_, symObjAddr: 0xFFF0, symBinAddr: 0x1000155D4, symSize: 0x28 }
  - { offsetInCU: 0x23668, offset: 0x23668, size: 0x8, addend: 0x0, symName: __ZSt13__copy_move_aILb0EN9__gnu_cxx17__normal_iteratorIPKSt6vectorIS2_IiSaIiEESaIS4_EES2_IS6_SaIS6_EEEENS1_IPS6_SA_EEET1_T0_SF_SE_, symObjAddr: 0xFF90, symBinAddr: 0x100015574, symSize: 0x60 }
  - { offsetInCU: 0x236CC, offset: 0x236CC, size: 0x8, addend: 0x0, symName: __ZSt12__miter_baseIN9__gnu_cxx17__normal_iteratorIPKSt6vectorIS2_IiSaIiEESaIS4_EES2_IS6_SaIS6_EEEEET_SC_, symObjAddr: 0xFF7C, symBinAddr: 0x100015560, symSize: 0x14 }
  - { offsetInCU: 0x2377B, offset: 0x2377B, size: 0x8, addend: 0x0, symName: __ZN9__gnu_cxx17__normal_iteratorIPSt6vectorIS1_IiSaIiEESaIS3_EES1_IS5_SaIS5_EEEC1ERKS6_, symObjAddr: 0xFF54, symBinAddr: 0x100015538, symSize: 0x28 }
  - { offsetInCU: 0x23752, offset: 0x23752, size: 0x8, addend: 0x0, symName: __ZSt22__uninitialized_copy_aIN9__gnu_cxx17__normal_iteratorIPKSt6vectorIS2_IiSaIiEESaIS4_EES2_IS6_SaIS6_EEEEPS6_S6_ET0_T_SE_SD_RSaIT1_E, symObjAddr: 0xFF24, symBinAddr: 0x100015508, symSize: 0x30 }
  - { offsetInCU: 0x237C1, offset: 0x237C1, size: 0x8, addend: 0x0, symName: __ZNSt12_Vector_baseISt6vectorIS0_IiSaIiEESaIS2_EESaIS4_EE11_M_allocateEm, symObjAddr: 0xFED4, symBinAddr: 0x1000154B8, symSize: 0x50 }
  - { offsetInCU: 0x238A1, offset: 0x238A1, size: 0x8, addend: 0x0, symName: __ZN9__gnu_cxx17__normal_iteratorIPKSt6vectorIS1_IiSaIiEESaIS3_EES1_IS5_SaIS5_EEEC1ERKS7_, symObjAddr: 0xFEAC, symBinAddr: 0x100015490, symSize: 0x28 }
  - { offsetInCU: 0x2387B, offset: 0x2387B, size: 0x8, addend: 0x0, symName: __ZNSt6vectorIS_IS_IiSaIiEESaIS1_EESaIS3_EE15_M_erase_at_endEPS3_, symObjAddr: 0xFE18, symBinAddr: 0x1000153FC, symSize: 0x94 }
  - { offsetInCU: 0x23939, offset: 0x23939, size: 0x8, addend: 0x0, symName: __ZNSt12_Vector_baseISt7complexIdESaIS1_EE17_Vector_impl_data12_M_swap_dataERS4_, symObjAddr: 0xFDCC, symBinAddr: 0x1000153B0, symSize: 0x4C }
  - { offsetInCU: 0x239CC, offset: 0x239CC, size: 0x8, addend: 0x0, symName: __ZNSt6vectorISt7complexIdESaIS1_EEC1ERKS2_, symObjAddr: 0xFDA4, symBinAddr: 0x100015388, symSize: 0x28 }
  - { offsetInCU: 0x239D4, offset: 0x239D4, size: 0x8, addend: 0x0, symName: __ZNKSt12_Vector_baseISt7complexIdESaIS1_EE13get_allocatorEv, symObjAddr: 0xFD54, symBinAddr: 0x100015338, symSize: 0x50 }
  - { offsetInCU: 0x23A82, offset: 0x23A82, size: 0x8, addend: 0x0, symName: __ZNSt12_Vector_baseISt6vectorIdSaIdEESaIS2_EE17_Vector_impl_data12_M_swap_dataERS5_, symObjAddr: 0xFD08, symBinAddr: 0x1000152EC, symSize: 0x4C }
  - { offsetInCU: 0x23B12, offset: 0x23B12, size: 0x8, addend: 0x0, symName: __ZNSt6vectorIS_IdSaIdEESaIS1_EEC1ERKS2_, symObjAddr: 0xFCE0, symBinAddr: 0x1000152C4, symSize: 0x28 }
  - { offsetInCU: 0x23B1D, offset: 0x23B1D, size: 0x8, addend: 0x0, symName: __ZNKSt12_Vector_baseISt6vectorIdSaIdEESaIS2_EE13get_allocatorEv, symObjAddr: 0xFC90, symBinAddr: 0x100015274, symSize: 0x50 }
  - { offsetInCU: 0x23BCB, offset: 0x23BCB, size: 0x8, addend: 0x0, symName: __ZNSt12_Vector_baseISt6vectorIS0_IiSaIiEESaIS2_EESaIS4_EE17_Vector_impl_data12_M_swap_dataERS7_, symObjAddr: 0xFC44, symBinAddr: 0x100015228, symSize: 0x4C }
  - { offsetInCU: 0x23C66, offset: 0x23C66, size: 0x8, addend: 0x0, symName: __ZNSt6vectorIS_IS_IiSaIiEESaIS1_EESaIS3_EEC1ERKS4_, symObjAddr: 0xFC1C, symBinAddr: 0x100015200, symSize: 0x28 }
  - { offsetInCU: 0x23C66, offset: 0x23C66, size: 0x8, addend: 0x0, symName: __ZNKSt12_Vector_baseISt6vectorIS0_IiSaIiEESaIS2_EESaIS4_EE13get_allocatorEv, symObjAddr: 0xFBCC, symBinAddr: 0x1000151B0, symSize: 0x50 }
  - { offsetInCU: 0x23D14, offset: 0x23D14, size: 0x8, addend: 0x0, symName: __ZNSt12_Vector_baseISt6vectorISt7complexIdESaIS2_EESaIS4_EE17_Vector_impl_data12_M_swap_dataERS7_, symObjAddr: 0xFB80, symBinAddr: 0x100015164, symSize: 0x4C }
  - { offsetInCU: 0x23DB2, offset: 0x23DB2, size: 0x8, addend: 0x0, symName: __ZNSt6vectorIS_ISt7complexIdESaIS1_EESaIS3_EEC1ERKS4_, symObjAddr: 0xFB58, symBinAddr: 0x10001513C, symSize: 0x28 }
  - { offsetInCU: 0x23DAF, offset: 0x23DAF, size: 0x8, addend: 0x0, symName: __ZNKSt12_Vector_baseISt6vectorISt7complexIdESaIS2_EESaIS4_EE13get_allocatorEv, symObjAddr: 0xFB08, symBinAddr: 0x1000150EC, symSize: 0x50 }
  - { offsetInCU: 0x23E5D, offset: 0x23E5D, size: 0x8, addend: 0x0, symName: __ZNSt12_Vector_baseISt6vectorIiSaIiEESaIS2_EE17_Vector_impl_data12_M_swap_dataERS5_, symObjAddr: 0xFABC, symBinAddr: 0x1000150A0, symSize: 0x4C }
  - { offsetInCU: 0x23EED, offset: 0x23EED, size: 0x8, addend: 0x0, symName: __ZNSt6vectorIS_IiSaIiEESaIS1_EEC1ERKS2_, symObjAddr: 0xFA94, symBinAddr: 0x100015078, symSize: 0x28 }
  - { offsetInCU: 0x23EF8, offset: 0x23EF8, size: 0x8, addend: 0x0, symName: __ZNKSt12_Vector_baseISt6vectorIiSaIiEESaIS2_EE13get_allocatorEv, symObjAddr: 0xFA44, symBinAddr: 0x100015028, symSize: 0x50 }
  - { offsetInCU: 0x23F75, offset: 0x23F75, size: 0x8, addend: 0x0, symName: __ZSt18uninitialized_copyIPSt6vectorIiSaIiEES3_ET0_T_S5_S4_, symObjAddr: 0xFA10, symBinAddr: 0x100014FF4, symSize: 0x34 }
  - { offsetInCU: 0x23FEA, offset: 0x23FEA, size: 0x8, addend: 0x0, symName: __ZSt13__copy_move_aILb0EPSt6vectorIiSaIiEES3_ET1_T0_S5_S4_, symObjAddr: 0xF9B0, symBinAddr: 0x100014F94, symSize: 0x60 }
  - { offsetInCU: 0x2404E, offset: 0x2404E, size: 0x8, addend: 0x0, symName: __ZSt12__miter_baseIPSt6vectorIiSaIiEEET_S4_, symObjAddr: 0xF99C, symBinAddr: 0x100014F80, symSize: 0x14 }
  - { offsetInCU: 0x2407F, offset: 0x2407F, size: 0x8, addend: 0x0, symName: __ZSt8_DestroyIN9__gnu_cxx17__normal_iteratorIPSt6vectorIiSaIiEES2_IS4_SaIS4_EEEEEvT_S9_, symObjAddr: 0xF974, symBinAddr: 0x100014F58, symSize: 0x28 }
  - { offsetInCU: 0x240BE, offset: 0x240BE, size: 0x8, addend: 0x0, symName: __ZSt13__copy_move_aILb0EN9__gnu_cxx17__normal_iteratorIPKSt6vectorIiSaIiEES2_IS4_SaIS4_EEEENS1_IPS4_S8_EEET1_T0_SD_SC_, symObjAddr: 0xF914, symBinAddr: 0x100014EF8, symSize: 0x60 }
  - { offsetInCU: 0x24122, offset: 0x24122, size: 0x8, addend: 0x0, symName: __ZSt12__miter_baseIN9__gnu_cxx17__normal_iteratorIPKSt6vectorIiSaIiEES2_IS4_SaIS4_EEEEET_SA_, symObjAddr: 0xF900, symBinAddr: 0x100014EE4, symSize: 0x14 }
  - { offsetInCU: 0x24153, offset: 0x24153, size: 0x8, addend: 0x0, symName: __ZSt13__find_if_notIN9__gnu_cxx17__normal_iteratorIPiSt6vectorIiSaIiEEEENS0_5__ops10_Iter_predIZ19remove_wrong_cyclesRS3_IS5_SaIS5_EERKSA_EUliE_EEET_SG_SG_T0_, symObjAddr: 0xF8BC, symBinAddr: 0x100014EA0, symSize: 0x44 }
  - { offsetInCU: 0x241CA, offset: 0x241CA, size: 0x8, addend: 0x0, symName: __ZN9__gnu_cxx5__ops11__pred_iterIZ19remove_wrong_cyclesRSt6vectorIS2_IiSaIiEESaIS4_EERKS6_EUliE_EENS0_10_Iter_predIT_EESC_, symObjAddr: 0xF884, symBinAddr: 0x100014E68, symSize: 0x38 }
  - { offsetInCU: 0x241FF, offset: 0x241FF, size: 0x8, addend: 0x0, symName: __ZNK9__gnu_cxx17__normal_iteratorIPKSt6vectorIiSaIiEES1_IS3_SaIS3_EEE4baseEv, symObjAddr: 0xF870, symBinAddr: 0x100014E54, symSize: 0x14 }
  - { offsetInCU: 0x24223, offset: 0x24223, size: 0x8, addend: 0x0, symName: __ZSt24__uninitialized_fill_n_aIPSt6vectorIiSaIiEEmS2_S2_ET_S4_T0_RKT1_RSaIT2_E, symObjAddr: 0xF840, symBinAddr: 0x100014E24, symSize: 0x30 }
  - { offsetInCU: 0x24297, offset: 0x24297, size: 0x8, addend: 0x0, symName: __ZNSt6vectorIS_IiSaIiEESaIS1_EE11_S_max_sizeERKS2_, symObjAddr: 0xF7E4, symBinAddr: 0x100014DC8, symSize: 0x5C }
  - { offsetInCU: 0x2434A, offset: 0x2434A, size: 0x8, addend: 0x0, symName: __ZSt27__uninitialized_default_n_aIPimiET_S1_T0_RSaIT1_E, symObjAddr: 0xF7BC, symBinAddr: 0x100014DA0, symSize: 0x28 }
  - { offsetInCU: 0x243A9, offset: 0x243A9, size: 0x8, addend: 0x0, symName: __ZNSt6vectorIS_IS_IiSaIiEESaIS1_EESaIS3_EE4backEv, symObjAddr: 0xF784, symBinAddr: 0x100014D68, symSize: 0x38 }
  - { offsetInCU: 0x243D1, offset: 0x243D1, size: 0x8, addend: 0x0, symName: __ZNSt6vectorIS_IS_IiSaIiEESaIS1_EESaIS3_EE17_M_realloc_insertIJS3_EEEvN9__gnu_cxx17__normal_iteratorIPS3_S5_EEDpOT_, symObjAddr: 0xF594, symBinAddr: 0x100014B78, symSize: 0x1F0 }
  - { offsetInCU: 0x2453C, offset: 0x2453C, size: 0x8, addend: 0x0, symName: __ZSt7forwardISt6vectorIS0_IiSaIiEESaIS2_EEEOT_RNSt16remove_referenceIS5_E4typeE, symObjAddr: 0xF580, symBinAddr: 0x100014B64, symSize: 0x14 }
  - { offsetInCU: 0x24570, offset: 0x24570, size: 0x8, addend: 0x0, symName: __ZNSt6vectorIS_ISt7complexIdESaIS1_EESaIS3_EE4backEv, symObjAddr: 0xF548, symBinAddr: 0x100014B2C, symSize: 0x38 }
  - { offsetInCU: 0x24598, offset: 0x24598, size: 0x8, addend: 0x0, symName: __ZNSt6vectorIS_ISt7complexIdESaIS1_EESaIS3_EE17_M_realloc_insertIJS3_EEEvN9__gnu_cxx17__normal_iteratorIPS3_S5_EEDpOT_, symObjAddr: 0xF358, symBinAddr: 0x10001493C, symSize: 0x1F0 }
  - { offsetInCU: 0x24703, offset: 0x24703, size: 0x8, addend: 0x0, symName: __ZSt7forwardISt6vectorISt7complexIdESaIS2_EEEOT_RNSt16remove_referenceIS5_E4typeE, symObjAddr: 0xF344, symBinAddr: 0x100014928, symSize: 0x14 }
  - { offsetInCU: 0x24733, offset: 0x24733, size: 0x8, addend: 0x0, symName: __ZSt22__uninitialized_copy_aIPKSt7complexIdEPS1_S1_ET0_T_S6_S5_RSaIT1_E, symObjAddr: 0xF314, symBinAddr: 0x1000148F8, symSize: 0x30 }
  - { offsetInCU: 0x2479E, offset: 0x2479E, size: 0x8, addend: 0x0, symName: __ZNSt6vectorISt7complexIdESaIS1_EE17_S_check_init_lenEmRKS2_, symObjAddr: 0xF290, symBinAddr: 0x100014874, symSize: 0x84 }
  - { offsetInCU: 0x24897, offset: 0x24897, size: 0x8, addend: 0x0, symName: __ZNKSt16initializer_listISt7complexIdEE4sizeEv, symObjAddr: 0xF278, symBinAddr: 0x10001485C, symSize: 0x18 }
  - { offsetInCU: 0x24920, offset: 0x24920, size: 0x8, addend: 0x0, symName: __ZNSt12_Vector_baseISt7complexIdESaIS1_EE12_Vector_implC1ERKS2_, symObjAddr: 0xF22C, symBinAddr: 0x100014810, symSize: 0x4C }
  - { offsetInCU: 0x24998, offset: 0x24998, size: 0x8, addend: 0x0, symName: __ZNK9__gnu_cxx17__normal_iteratorIPSt7complexIdESt6vectorIS2_SaIS2_EEE4baseEv, symObjAddr: 0xF218, symBinAddr: 0x1000147FC, symSize: 0x14 }
  - { offsetInCU: 0x249BC, offset: 0x249BC, size: 0x8, addend: 0x0, symName: __ZNSt6vectorISt7complexIdESaIS1_EE11_S_relocateEPS1_S4_S4_RS2_, symObjAddr: 0xF1E4, symBinAddr: 0x1000147C8, symSize: 0x34 }
  - { offsetInCU: 0x24A18, offset: 0x24A18, size: 0x8, addend: 0x0, symName: __ZNSt12_Vector_baseISt7complexIdESaIS1_EE11_M_allocateEm, symObjAddr: 0xF194, symBinAddr: 0x100014778, symSize: 0x50 }
  - { offsetInCU: 0x24A7F, offset: 0x24A7F, size: 0x8, addend: 0x0, symName: __ZN9__gnu_cxxmiIPSt7complexIdESt6vectorIS2_SaIS2_EEEENS_17__normal_iteratorIT_T0_E15difference_typeERKSA_SD_, symObjAddr: 0xF154, symBinAddr: 0x100014738, symSize: 0x40 }
  - { offsetInCU: 0x24ACD, offset: 0x24ACD, size: 0x8, addend: 0x0, symName: __ZNSt6vectorISt7complexIdESaIS1_EE5beginEv, symObjAddr: 0xF130, symBinAddr: 0x100014714, symSize: 0x24 }
  - { offsetInCU: 0x24AF5, offset: 0x24AF5, size: 0x8, addend: 0x0, symName: __ZNKSt6vectorISt7complexIdESaIS1_EE12_M_check_lenEmPKc, symObjAddr: 0xF060, symBinAddr: 0x100014644, symSize: 0xD0 }
  - { offsetInCU: 0x24BBD, offset: 0x24BBD, size: 0x8, addend: 0x0, symName: __ZN9__gnu_cxx17__normal_iteratorIPSt7complexIdESt6vectorIS2_SaIS2_EEEC1ERKS3_, symObjAddr: 0xF038, symBinAddr: 0x10001461C, symSize: 0x28 }
  - { offsetInCU: 0x24BE3, offset: 0x24BE3, size: 0x8, addend: 0x0, symName: __ZSt7forwardIRKSt7complexIdEEOT_RNSt16remove_referenceIS4_E4typeE, symObjAddr: 0xF024, symBinAddr: 0x100014608, symSize: 0x14 }
  - { offsetInCU: 0x24C83, offset: 0x24C83, size: 0x8, addend: 0x0, symName: __ZNSt6vectorIdSaIdEEC1ERKS0_, symObjAddr: 0xEFFC, symBinAddr: 0x1000145E0, symSize: 0x28 }
  - { offsetInCU: 0x24C99, offset: 0x24C99, size: 0x8, addend: 0x0, symName: __ZNKSt12_Vector_baseIdSaIdEE13get_allocatorEv, symObjAddr: 0xEFAC, symBinAddr: 0x100014590, symSize: 0x50 }
  - { offsetInCU: 0x24D16, offset: 0x24D16, size: 0x8, addend: 0x0, symName: __ZSt8_DestroyIPNSt7__cxx1112basic_stringIcSt11char_traitsIcESaIcEEEEvT_S7_, symObjAddr: 0xEF84, symBinAddr: 0x100014568, symSize: 0x28 }
  - { offsetInCU: 0x24D59, offset: 0x24D59, size: 0x8, addend: 0x0, symName: __ZNSt6vectorINSt7__cxx1112basic_stringIcSt11char_traitsIcESaIcEEESaIS5_EE5clearEv, symObjAddr: 0xEF58, symBinAddr: 0x10001453C, symSize: 0x2C }
  - { offsetInCU: 0x24D81, offset: 0x24D81, size: 0x8, addend: 0x0, symName: __ZNSt6vectorINSt7__cxx1112basic_stringIcSt11char_traitsIcESaIcEEESaIS5_EE12emplace_backIJRKS5_EEERS5_DpOT_, symObjAddr: 0xEE3C, symBinAddr: 0x100014420, symSize: 0x11C }
  - { offsetInCU: 0x24E24, offset: 0x24E24, size: 0x8, addend: 0x0, symName: __ZNKSt16istream_iteratorINSt7__cxx1112basic_stringIcSt11char_traitsIcESaIcEEEcS3_lEdeEv, symObjAddr: 0xEE24, symBinAddr: 0x100014408, symSize: 0x18 }
  - { offsetInCU: 0x24E4C, offset: 0x24E4C, size: 0x8, addend: 0x0, symName: __ZNSt16istream_iteratorINSt7__cxx1112basic_stringIcSt11char_traitsIcESaIcEEEcS3_lEppEv, symObjAddr: 0xEE04, symBinAddr: 0x1000143E8, symSize: 0x20 }
  - { offsetInCU: 0x24E70, offset: 0x24E70, size: 0x8, addend: 0x0, symName: __ZStneRKSt16istream_iteratorINSt7__cxx1112basic_stringIcSt11char_traitsIcESaIcEEEcS3_lES8_, symObjAddr: 0xEDD8, symBinAddr: 0x1000143BC, symSize: 0x2C }
  - { offsetInCU: 0x24EAA, offset: 0x24EAA, size: 0x8, addend: 0x0, symName: __ZNSt12_Vector_baseINSt7__cxx1112basic_stringIcSt11char_traitsIcESaIcEEESaIS5_EE13_M_deallocateEPS5_m, symObjAddr: 0xED80, symBinAddr: 0x100014364, symSize: 0x58 }
  - { offsetInCU: 0x24FB0, offset: 0x24FB0, size: 0x8, addend: 0x0, symName: __ZNSt12_Vector_baseINSt7__cxx1112basic_stringIcSt11char_traitsIcESaIcEEESaIS5_EE12_Vector_implC1ERKS6_, symObjAddr: 0xED34, symBinAddr: 0x100014318, symSize: 0x4C }
  - { offsetInCU: 0x2501B, offset: 0x2501B, size: 0x8, addend: 0x0, symName: __ZSt8_DestroyIPSt6vectorIS0_IiSaIiEESaIS2_EEEvT_S6_, symObjAddr: 0xED0C, symBinAddr: 0x1000142F0, symSize: 0x28 }
  - { offsetInCU: 0x250EA, offset: 0x250EA, size: 0x8, addend: 0x0, symName: __ZNK9__gnu_cxx17__normal_iteratorIPSt6vectorISt7complexIdESaIS3_EES1_IS5_SaIS5_EEE4baseEv, symObjAddr: 0xECF8, symBinAddr: 0x1000142DC, symSize: 0x14 }
  - { offsetInCU: 0x2510E, offset: 0x2510E, size: 0x8, addend: 0x0, symName: __ZNSt6vectorIS_ISt7complexIdESaIS1_EESaIS3_EE11_S_relocateEPS3_S6_S6_RS4_, symObjAddr: 0xECC4, symBinAddr: 0x1000142A8, symSize: 0x34 }
  - { offsetInCU: 0x2516A, offset: 0x2516A, size: 0x8, addend: 0x0, symName: __ZNSt12_Vector_baseISt6vectorISt7complexIdESaIS2_EESaIS4_EE11_M_allocateEm, symObjAddr: 0xEC74, symBinAddr: 0x100014258, symSize: 0x50 }
  - { offsetInCU: 0x251CB, offset: 0x251CB, size: 0x8, addend: 0x0, symName: __ZN9__gnu_cxxmiIPSt6vectorISt7complexIdESaIS3_EES1_IS5_SaIS5_EEEENS_17__normal_iteratorIT_T0_E15difference_typeERKSC_SF_, symObjAddr: 0xEC28, symBinAddr: 0x10001420C, symSize: 0x4C }
  - { offsetInCU: 0x25219, offset: 0x25219, size: 0x8, addend: 0x0, symName: __ZNKSt6vectorIS_ISt7complexIdESaIS1_EESaIS3_EE12_M_check_lenEmPKc, symObjAddr: 0xEB58, symBinAddr: 0x10001413C, symSize: 0xD0 }
  - { offsetInCU: 0x252ED, offset: 0x252ED, size: 0x8, addend: 0x0, symName: __ZN9__gnu_cxx17__normal_iteratorIPSt6vectorISt7complexIdESaIS3_EES1_IS5_SaIS5_EEEC1ERKS6_, symObjAddr: 0xEB30, symBinAddr: 0x100014114, symSize: 0x28 }
  - { offsetInCU: 0x25307, offset: 0x25307, size: 0x8, addend: 0x0, symName: __ZSt7forwardIRKSt6vectorISt7complexIdESaIS2_EEEOT_RNSt16remove_referenceIS7_E4typeE, symObjAddr: 0xEB1C, symBinAddr: 0x100014100, symSize: 0x14 }
  - { offsetInCU: 0x2533B, offset: 0x2533B, size: 0x8, addend: 0x0, symName: __ZNSt6vectorISt7complexIdESaIS1_EE4backEv, symObjAddr: 0xEAE4, symBinAddr: 0x1000140C8, symSize: 0x38 }
  - { offsetInCU: 0x25363, offset: 0x25363, size: 0x8, addend: 0x0, symName: __ZNSt6vectorISt7complexIdESaIS1_EE17_M_realloc_insertIJS1_EEEvN9__gnu_cxx17__normal_iteratorIPS1_S3_EEDpOT_, symObjAddr: 0xE91C, symBinAddr: 0x100013F00, symSize: 0x1C8 }
  - { offsetInCU: 0x254CE, offset: 0x254CE, size: 0x8, addend: 0x0, symName: __ZSt7forwardISt7complexIdEEOT_RNSt16remove_referenceIS2_E4typeE, symObjAddr: 0xE908, symBinAddr: 0x100013EEC, symSize: 0x14 }
  - { offsetInCU: 0x254FE, offset: 0x254FE, size: 0x8, addend: 0x0, symName: __ZSt8_DestroyIPSt7complexIdEEvT_S3_, symObjAddr: 0xE8E0, symBinAddr: 0x100013EC4, symSize: 0x28 }
  - { offsetInCU: 0x2556F, offset: 0x2556F, size: 0x8, addend: 0x0, symName: __ZSt22__uninitialized_copy_aIN9__gnu_cxx17__normal_iteratorIPdSt6vectorIdSaIdEEEES2_dET0_T_S8_S7_RSaIT1_E, symObjAddr: 0xE8B0, symBinAddr: 0x100013E94, symSize: 0x30 }
  - { offsetInCU: 0x255DE, offset: 0x255DE, size: 0x8, addend: 0x0, symName: __ZNSt12_Vector_baseIdSaIdEE11_M_allocateEm, symObjAddr: 0xE860, symBinAddr: 0x100013E44, symSize: 0x50 }
  - { offsetInCU: 0x2566F, offset: 0x2566F, size: 0x8, addend: 0x0, symName: __ZSt8_DestroyIPSt6vectorISt7complexIdESaIS2_EEEvT_S6_, symObjAddr: 0xE838, symBinAddr: 0x100013E1C, symSize: 0x28 }
  - { offsetInCU: 0x256F8, offset: 0x256F8, size: 0x8, addend: 0x0, symName: __ZNSt6vectorIdSaIdEE4backEv, symObjAddr: 0xE800, symBinAddr: 0x100013DE4, symSize: 0x38 }
  - { offsetInCU: 0x25720, offset: 0x25720, size: 0x8, addend: 0x0, symName: __ZNSt6vectorIdSaIdEE17_M_realloc_insertIJdEEEvN9__gnu_cxx17__normal_iteratorIPdS1_EEDpOT_, symObjAddr: 0xE640, symBinAddr: 0x100013C24, symSize: 0x1C0 }
  - { offsetInCU: 0x2588B, offset: 0x2588B, size: 0x8, addend: 0x0, symName: __ZSt7forwardIdEOT_RNSt16remove_referenceIS0_E4typeE, symObjAddr: 0xE62C, symBinAddr: 0x100013C10, symSize: 0x14 }
  - { offsetInCU: 0x25906, offset: 0x25906, size: 0x8, addend: 0x0, symName: __ZSt4moveIN9__gnu_cxx17__normal_iteratorIPiSt6vectorIiSaIiEEEES6_ET0_T_S8_S7_, symObjAddr: 0xE5E4, symBinAddr: 0x100013BC8, symSize: 0x48 }
  - { offsetInCU: 0x25964, offset: 0x25964, size: 0x8, addend: 0x0, symName: __ZNK9__gnu_cxx17__normal_iteratorIPKiSt6vectorIiSaIiEEE4baseEv, symObjAddr: 0xE5D0, symBinAddr: 0x100013BB4, symSize: 0x14 }
  - { offsetInCU: 0x25988, offset: 0x25988, size: 0x8, addend: 0x0, symName: __ZSt22__final_insertion_sortIN9__gnu_cxx17__normal_iteratorIPiSt6vectorIiSaIiEEEENS0_5__ops15_Iter_less_iterEEvT_S9_T0_, symObjAddr: 0xE534, symBinAddr: 0x100013B18, symSize: 0x9C }
  - { offsetInCU: 0x259E2, offset: 0x259E2, size: 0x8, addend: 0x0, symName: __ZSt16__introsort_loopIN9__gnu_cxx17__normal_iteratorIPiSt6vectorIiSaIiEEEElNS0_5__ops15_Iter_less_iterEEvT_S9_T0_T1_, symObjAddr: 0xE47C, symBinAddr: 0x100013A60, symSize: 0xB8 }
  - { offsetInCU: 0x25A78, offset: 0x25A78, size: 0x8, addend: 0x0, symName: __ZSt18uninitialized_copyIPiS0_ET0_T_S2_S1_, symObjAddr: 0xE440, symBinAddr: 0x100013A24, symSize: 0x3C }
  - { offsetInCU: 0x25AED, offset: 0x25AED, size: 0x8, addend: 0x0, symName: __ZSt13__copy_move_aILb0EPiS0_ET1_T0_S2_S1_, symObjAddr: 0xE3E0, symBinAddr: 0x1000139C4, symSize: 0x60 }
  - { offsetInCU: 0x25B51, offset: 0x25B51, size: 0x8, addend: 0x0, symName: __ZSt12__miter_baseIPiET_S1_, symObjAddr: 0xE3CC, symBinAddr: 0x1000139B0, symSize: 0x14 }
  - { offsetInCU: 0x25B82, offset: 0x25B82, size: 0x8, addend: 0x0, symName: __ZSt8_DestroyIN9__gnu_cxx17__normal_iteratorIPiSt6vectorIiSaIiEEEEEvT_S7_, symObjAddr: 0xE3A4, symBinAddr: 0x100013988, symSize: 0x28 }
  - { offsetInCU: 0x25BC1, offset: 0x25BC1, size: 0x8, addend: 0x0, symName: __ZSt13__copy_move_aILb0EN9__gnu_cxx17__normal_iteratorIPKiSt6vectorIiSaIiEEEENS1_IPiS6_EEET1_T0_SB_SA_, symObjAddr: 0xE344, symBinAddr: 0x100013928, symSize: 0x60 }
  - { offsetInCU: 0x25C25, offset: 0x25C25, size: 0x8, addend: 0x0, symName: __ZSt12__miter_baseIN9__gnu_cxx17__normal_iteratorIPKiSt6vectorIiSaIiEEEEET_S8_, symObjAddr: 0xE330, symBinAddr: 0x100013914, symSize: 0x14 }
  - { offsetInCU: 0x25C5A, offset: 0x25C5A, size: 0x8, addend: 0x0, symName: __ZNSt6vectorIiSaIiEE15_M_erase_at_endEPi, symObjAddr: 0xE2A8, symBinAddr: 0x10001388C, symSize: 0x88 }
  - { offsetInCU: 0x25D57, offset: 0x25D57, size: 0x8, addend: 0x0, symName: __ZNSt6vectorIiSaIiEEC1ERKS0_, symObjAddr: 0xE280, symBinAddr: 0x100013864, symSize: 0x28 }
  - { offsetInCU: 0x25D6D, offset: 0x25D6D, size: 0x8, addend: 0x0, symName: __ZNKSt12_Vector_baseIiSaIiEE13get_allocatorEv, symObjAddr: 0xE230, symBinAddr: 0x100013814, symSize: 0x50 }
  - { offsetInCU: 0x25DEA, offset: 0x25DEA, size: 0x8, addend: 0x0, symName: __ZSt22__final_insertion_sortIN9__gnu_cxx17__normal_iteratorIPSt6vectorIiSaIiEES2_IS4_SaIS4_EEEENS0_5__ops15_Iter_comp_iterIPFbRKS4_SC_EEEEvT_SG_T0_, symObjAddr: 0xE1A4, symBinAddr: 0x100013788, symSize: 0x8C }
  - { offsetInCU: 0x25E44, offset: 0x25E44, size: 0x8, addend: 0x0, symName: __ZSt16__introsort_loopIN9__gnu_cxx17__normal_iteratorIPSt6vectorIiSaIiEES2_IS4_SaIS4_EEEElNS0_5__ops15_Iter_comp_iterIPFbRKS4_SC_EEEEvT_SG_T0_T1_, symObjAddr: 0xE0FC, symBinAddr: 0x1000136E0, symSize: 0xA8 }
  - { offsetInCU: 0x25EDA, offset: 0x25EDA, size: 0x8, addend: 0x0, symName: __ZSt4__lgIlET_S0_, symObjAddr: 0xE0D8, symBinAddr: 0x1000136BC, symSize: 0x24 }
  - { offsetInCU: 0x25F77, offset: 0x25F77, size: 0x8, addend: 0x0, symName: __ZN9__gnu_cxx5__ops15_Iter_comp_iterIPFbRKSt6vectorIiSaIiEES6_EEC1ES8_, symObjAddr: 0xE0A8, symBinAddr: 0x10001368C, symSize: 0x30 }
  - { offsetInCU: 0x25F6B, offset: 0x25F6B, size: 0x8, addend: 0x0, symName: __ZSt4moveIRPFbRKSt6vectorIiSaIiEES4_EEONSt16remove_referenceIT_E4typeEOS9_, symObjAddr: 0xE094, symBinAddr: 0x100013678, symSize: 0x14 }
  - { offsetInCU: 0x25F9F, offset: 0x25F9F, size: 0x8, addend: 0x0, symName: __ZNSt6vectorIiSaIiEE4backEv, symObjAddr: 0xE05C, symBinAddr: 0x100013640, symSize: 0x38 }
  - { offsetInCU: 0x25FC7, offset: 0x25FC7, size: 0x8, addend: 0x0, symName: __ZNSt6vectorIiSaIiEE17_M_realloc_insertIJiEEEvN9__gnu_cxx17__normal_iteratorIPiS1_EEDpOT_, symObjAddr: 0xDE9C, symBinAddr: 0x100013480, symSize: 0x1C0 }
  - { offsetInCU: 0x2612C, offset: 0x2612C, size: 0x8, addend: 0x0, symName: __ZSt18uninitialized_copyIN9__gnu_cxx17__normal_iteratorIPKdSt6vectorIdSaIdEEEEPdET0_T_SA_S9_, symObjAddr: 0xDE60, symBinAddr: 0x100013444, symSize: 0x3C }
  - { offsetInCU: 0x26206, offset: 0x26206, size: 0x8, addend: 0x0, symName: __ZN9__gnu_cxx17__normal_iteratorIPKdSt6vectorIdSaIdEEEC1ERKS2_, symObjAddr: 0xDE38, symBinAddr: 0x10001341C, symSize: 0x28 }
  - { offsetInCU: 0x2623D, offset: 0x2623D, size: 0x8, addend: 0x0, symName: __ZNK9__gnu_cxx17__normal_iteratorIPSt6vectorIdSaIdEES1_IS3_SaIS3_EEE4baseEv, symObjAddr: 0xDE24, symBinAddr: 0x100013408, symSize: 0x14 }
  - { offsetInCU: 0x26261, offset: 0x26261, size: 0x8, addend: 0x0, symName: __ZNSt6vectorIS_IdSaIdEESaIS1_EE11_S_relocateEPS1_S4_S4_RS2_, symObjAddr: 0xDDF0, symBinAddr: 0x1000133D4, symSize: 0x34 }
  - { offsetInCU: 0x262BD, offset: 0x262BD, size: 0x8, addend: 0x0, symName: __ZNSt12_Vector_baseISt6vectorIdSaIdEESaIS2_EE11_M_allocateEm, symObjAddr: 0xDDA0, symBinAddr: 0x100013384, symSize: 0x50 }
  - { offsetInCU: 0x26324, offset: 0x26324, size: 0x8, addend: 0x0, symName: __ZN9__gnu_cxxmiIPSt6vectorIdSaIdEES1_IS3_SaIS3_EEEENS_17__normal_iteratorIT_T0_E15difference_typeERKSA_SD_, symObjAddr: 0xDD54, symBinAddr: 0x100013338, symSize: 0x4C }
  - { offsetInCU: 0x26372, offset: 0x26372, size: 0x8, addend: 0x0, symName: __ZNSt6vectorIS_IdSaIdEESaIS1_EE5beginEv, symObjAddr: 0xDD30, symBinAddr: 0x100013314, symSize: 0x24 }
  - { offsetInCU: 0x2639A, offset: 0x2639A, size: 0x8, addend: 0x0, symName: __ZNKSt6vectorIS_IdSaIdEESaIS1_EE12_M_check_lenEmPKc, symObjAddr: 0xDC60, symBinAddr: 0x100013244, symSize: 0xD0 }
  - { offsetInCU: 0x26460, offset: 0x26460, size: 0x8, addend: 0x0, symName: __ZN9__gnu_cxx17__normal_iteratorIPSt6vectorIdSaIdEES1_IS3_SaIS3_EEEC1ERKS4_, symObjAddr: 0xDC38, symBinAddr: 0x10001321C, symSize: 0x28 }
  - { offsetInCU: 0x26488, offset: 0x26488, size: 0x8, addend: 0x0, symName: __ZSt7forwardIRKSt6vectorIdSaIdEEEOT_RNSt16remove_referenceIS5_E4typeE, symObjAddr: 0xDC24, symBinAddr: 0x100013208, symSize: 0x14 }
  - { offsetInCU: 0x264B8, offset: 0x264B8, size: 0x8, addend: 0x0, symName: __ZSt18uninitialized_copyIN9__gnu_cxx17__normal_iteratorIPKiSt6vectorIiSaIiEEEEPiET0_T_SA_S9_, symObjAddr: 0xDBE8, symBinAddr: 0x1000131CC, symSize: 0x3C }
  - { offsetInCU: 0x26592, offset: 0x26592, size: 0x8, addend: 0x0, symName: __ZN9__gnu_cxx17__normal_iteratorIPKiSt6vectorIiSaIiEEEC1ERKS2_, symObjAddr: 0xDBC0, symBinAddr: 0x1000131A4, symSize: 0x28 }
  - { offsetInCU: 0x265C5, offset: 0x265C5, size: 0x8, addend: 0x0, symName: __ZNSt6vectorIS_IiSaIiEESaIS1_EE11_S_relocateEPS1_S4_S4_RS2_, symObjAddr: 0xDB8C, symBinAddr: 0x100013170, symSize: 0x34 }
  - { offsetInCU: 0x2661D, offset: 0x2661D, size: 0x8, addend: 0x0, symName: __ZN9__gnu_cxxmiIPSt6vectorIiSaIiEES1_IS3_SaIS3_EEEENS_17__normal_iteratorIT_T0_E15difference_typeERKSA_SD_, symObjAddr: 0xDB40, symBinAddr: 0x100013124, symSize: 0x4C }
  - { offsetInCU: 0x2666B, offset: 0x2666B, size: 0x8, addend: 0x0, symName: __ZNKSt6vectorIS_IiSaIiEESaIS1_EE12_M_check_lenEmPKc, symObjAddr: 0xDA70, symBinAddr: 0x100013054, symSize: 0xD0 }
  - { offsetInCU: 0x26704, offset: 0x26704, size: 0x8, addend: 0x0, symName: __ZSt7forwardIRKSt6vectorIiSaIiEEEOT_RNSt16remove_referenceIS5_E4typeE, symObjAddr: 0xDA5C, symBinAddr: 0x100013040, symSize: 0x14 }
  - { offsetInCU: 0x26734, offset: 0x26734, size: 0x8, addend: 0x0, symName: __ZSt9__find_ifIN9__gnu_cxx17__normal_iteratorIPiSt6vectorIiSaIiEEEENS0_5__ops16_Iter_equals_valIKiEEET_SB_SB_T0_St26random_access_iterator_tag, symObjAddr: 0xD8C0, symBinAddr: 0x100012EA4, symSize: 0x19C }
  - { offsetInCU: 0x26813, offset: 0x26813, size: 0x8, addend: 0x0, symName: __ZN9__gnu_cxx5__ops16_Iter_equals_valIKiEC1ERS2_, symObjAddr: 0xD89C, symBinAddr: 0x100012E80, symSize: 0x24 }
  - { offsetInCU: 0x26837, offset: 0x26837, size: 0x8, addend: 0x0, symName: __ZNSt12_Vector_baseIiSaIiEE17_Vector_impl_data12_M_swap_dataERS2_, symObjAddr: 0xD850, symBinAddr: 0x100012E34, symSize: 0x4C }
  - { offsetInCU: 0x2688B, offset: 0x2688B, size: 0x8, addend: 0x0, symName: __ZSt24__uninitialized_fill_n_aIPimiiET_S1_T0_RKT1_RSaIT2_E, symObjAddr: 0xD820, symBinAddr: 0x100012E04, symSize: 0x30 }
  - { offsetInCU: 0x26903, offset: 0x26903, size: 0x8, addend: 0x0, symName: __ZNSt12_Vector_baseIiSaIiEE17_M_create_storageEm, symObjAddr: 0xD7C0, symBinAddr: 0x100012DA4, symSize: 0x60 }
  - { offsetInCU: 0x26937, offset: 0x26937, size: 0x8, addend: 0x0, symName: __ZNSt6vectorIiSaIiEE11_S_max_sizeERKS0_, symObjAddr: 0xD76C, symBinAddr: 0x100012D50, symSize: 0x54 }
  - { offsetInCU: 0x269EA, offset: 0x269EA, size: 0x8, addend: 0x0, symName: __ZSt22__uninitialized_copy_aIPKSt6vectorIiSaIiEEPS2_S2_ET0_T_S7_S6_RSaIT1_E, symObjAddr: 0xD73C, symBinAddr: 0x100012D20, symSize: 0x30 }
  - { offsetInCU: 0x26A59, offset: 0x26A59, size: 0x8, addend: 0x0, symName: __ZNSt12_Vector_baseISt6vectorIiSaIiEESaIS2_EE11_M_allocateEm, symObjAddr: 0xD6EC, symBinAddr: 0x100012CD0, symSize: 0x50 }
  - { offsetInCU: 0x26B04, offset: 0x26B04, size: 0x8, addend: 0x0, symName: __ZNKSt16initializer_listISt6vectorIiSaIiEEE4sizeEv, symObjAddr: 0xD6D4, symBinAddr: 0x100012CB8, symSize: 0x18 }
  - { offsetInCU: 0x26B28, offset: 0x26B28, size: 0x8, addend: 0x0, symName: __ZSt22__uninitialized_copy_aIPKiPiiET0_T_S4_S3_RSaIT1_E, symObjAddr: 0xD6A4, symBinAddr: 0x100012C88, symSize: 0x30 }
  - { offsetInCU: 0x26BDD, offset: 0x26BDD, size: 0x8, addend: 0x0, symName: __ZNKSt16initializer_listIiE4sizeEv, symObjAddr: 0xD68C, symBinAddr: 0x100012C70, symSize: 0x18 }
  - { offsetInCU: 0x26C58, offset: 0x26C58, size: 0x8, addend: 0x0, symName: __ZNSt12_Vector_baseIiSaIiEE12_Vector_implC1ERKS0_, symObjAddr: 0xD640, symBinAddr: 0x100012C24, symSize: 0x4C }
  - { offsetInCU: 0x26CDF, offset: 0x26CDF, size: 0x8, addend: 0x0, symName: __ZSt8_DestroyIPSt6vectorIiSaIiEEEvT_S4_, symObjAddr: 0xD618, symBinAddr: 0x100012BFC, symSize: 0x28 }
  - { offsetInCU: 0x26D1E, offset: 0x26D1E, size: 0x8, addend: 0x0, symName: __ZSt18uninitialized_copyIN9__gnu_cxx17__normal_iteratorIPKSt6vectorIiSaIiEES2_IS4_SaIS4_EEEEPS4_ET0_T_SC_SB_, symObjAddr: 0xD5E4, symBinAddr: 0x100012BC8, symSize: 0x34 }
  - { offsetInCU: 0x26E06, offset: 0x26E06, size: 0x8, addend: 0x0, symName: __ZN9__gnu_cxx17__normal_iteratorIPKSt6vectorIiSaIiEES1_IS3_SaIS3_EEEC1ERKS5_, symObjAddr: 0xD5BC, symBinAddr: 0x100012BA0, symSize: 0x28 }
  - { offsetInCU: 0x26DEC, offset: 0x26DEC, size: 0x8, addend: 0x0, symName: __ZNSt12_Vector_baseISt6vectorIiSaIiEESaIS2_EE17_M_create_storageEm, symObjAddr: 0xD550, symBinAddr: 0x100012B34, symSize: 0x6C }
  - { offsetInCU: 0x26E89, offset: 0x26E89, size: 0x8, addend: 0x0, symName: __ZNSt12_Vector_baseISt6vectorIiSaIiEESaIS2_EE12_Vector_implC1ERKS3_, symObjAddr: 0xD504, symBinAddr: 0x100012AE8, symSize: 0x4C }
  - { offsetInCU: 0x26F28, offset: 0x26F28, size: 0x8, addend: 0x0, symName: __ZNSt6vectorIiSaIiEE11_S_relocateEPiS2_S2_RS0_, symObjAddr: 0xD4D0, symBinAddr: 0x100012AB4, symSize: 0x34 }
  - { offsetInCU: 0x26F84, offset: 0x26F84, size: 0x8, addend: 0x0, symName: __ZNSt12_Vector_baseIiSaIiEE11_M_allocateEm, symObjAddr: 0xD480, symBinAddr: 0x100012A64, symSize: 0x50 }
  - { offsetInCU: 0x26FE5, offset: 0x26FE5, size: 0x8, addend: 0x0, symName: __ZN9__gnu_cxxmiIPiSt6vectorIiSaIiEEEENS_17__normal_iteratorIT_T0_E15difference_typeERKS8_SB_, symObjAddr: 0xD440, symBinAddr: 0x100012A24, symSize: 0x40 }
  - { offsetInCU: 0x27033, offset: 0x27033, size: 0x8, addend: 0x0, symName: __ZNKSt6vectorIiSaIiEE12_M_check_lenEmPKc, symObjAddr: 0xD370, symBinAddr: 0x100012954, symSize: 0xD0 }
  - { offsetInCU: 0x270CC, offset: 0x270CC, size: 0x8, addend: 0x0, symName: __ZSt7forwardIRKiEOT_RNSt16remove_referenceIS2_E4typeE, symObjAddr: 0xD35C, symBinAddr: 0x100012940, symSize: 0x14 }
  - { offsetInCU: 0x270FC, offset: 0x270FC, size: 0x8, addend: 0x0, symName: __ZSt8_DestroyIPiEvT_S1_, symObjAddr: 0xD334, symBinAddr: 0x100012918, symSize: 0x28 }
  - { offsetInCU: 0x271B8, offset: 0x271B8, size: 0x8, addend: 0x0, symName: __ZSt24__uninitialized_fill_n_aIPSt6vectorIdSaIdEEmS2_S2_ET_S4_T0_RKT1_RSaIT2_E, symObjAddr: 0xD304, symBinAddr: 0x1000128E8, symSize: 0x30 }
  - { offsetInCU: 0x2722C, offset: 0x2722C, size: 0x8, addend: 0x0, symName: __ZNSt6vectorIS_IdSaIdEESaIS1_EE11_S_max_sizeERKS2_, symObjAddr: 0xD2A8, symBinAddr: 0x10001288C, symSize: 0x5C }
  - { offsetInCU: 0x272DF, offset: 0x272DF, size: 0x8, addend: 0x0, symName: __ZSt8_DestroyIPdEvT_S1_, symObjAddr: 0xD280, symBinAddr: 0x100012864, symSize: 0x28 }
  - { offsetInCU: 0x2731E, offset: 0x2731E, size: 0x8, addend: 0x0, symName: __ZSt24__uninitialized_fill_n_aIPdmddET_S1_T0_RKT1_RSaIT2_E, symObjAddr: 0xD250, symBinAddr: 0x100012834, symSize: 0x30 }
  - { offsetInCU: 0x27396, offset: 0x27396, size: 0x8, addend: 0x0, symName: __ZNSt12_Vector_baseIdSaIdEE17_M_create_storageEm, symObjAddr: 0xD1F0, symBinAddr: 0x1000127D4, symSize: 0x60 }
  - { offsetInCU: 0x27421, offset: 0x27421, size: 0x8, addend: 0x0, symName: __ZNSt12_Vector_baseIdSaIdEE12_Vector_implC1ERKS0_, symObjAddr: 0xD1A4, symBinAddr: 0x100012788, symSize: 0x4C }
  - { offsetInCU: 0x27476, offset: 0x27476, size: 0x8, addend: 0x0, symName: __ZNSt6vectorIdSaIdEE11_S_max_sizeERKS0_, symObjAddr: 0xD150, symBinAddr: 0x100012734, symSize: 0x54 }
  - { offsetInCU: 0x27529, offset: 0x27529, size: 0x8, addend: 0x0, symName: __ZSt8_DestroyIPSt6vectorIdSaIdEEEvT_S4_, symObjAddr: 0xD128, symBinAddr: 0x10001270C, symSize: 0x28 }
  - { offsetInCU: 0x27568, offset: 0x27568, size: 0x8, addend: 0x0, symName: __ZSt18uninitialized_copyIN9__gnu_cxx17__normal_iteratorIPKSt6vectorIdSaIdEES2_IS4_SaIS4_EEEEPS4_ET0_T_SC_SB_, symObjAddr: 0xD0F4, symBinAddr: 0x1000126D8, symSize: 0x34 }
  - { offsetInCU: 0x27650, offset: 0x27650, size: 0x8, addend: 0x0, symName: __ZN9__gnu_cxx17__normal_iteratorIPKSt6vectorIdSaIdEES1_IS3_SaIS3_EEEC1ERKS5_, symObjAddr: 0xD0CC, symBinAddr: 0x1000126B0, symSize: 0x28 }
  - { offsetInCU: 0x27636, offset: 0x27636, size: 0x8, addend: 0x0, symName: __ZNSt12_Vector_baseISt6vectorIdSaIdEESaIS2_EE17_M_create_storageEm, symObjAddr: 0xD060, symBinAddr: 0x100012644, symSize: 0x6C }
  - { offsetInCU: 0x276D3, offset: 0x276D3, size: 0x8, addend: 0x0, symName: __ZNSt12_Vector_baseISt6vectorIdSaIdEESaIS2_EE12_Vector_implC1ERKS3_, symObjAddr: 0xD014, symBinAddr: 0x1000125F8, symSize: 0x4C }
  - { offsetInCU: 0x27752, offset: 0x27752, size: 0x8, addend: 0x0, symName: __ZNSt12_Vector_baseIdSaIdEE17_Vector_impl_data12_M_swap_dataERS2_, symObjAddr: 0xCFC8, symBinAddr: 0x1000125AC, symSize: 0x4C }
  - { offsetInCU: 0x277D1, offset: 0x277D1, size: 0x8, addend: 0x0, symName: __ZSt22__uninitialized_copy_aIN9__gnu_cxx17__normal_iteratorIPKSt7complexIdESt6vectorIS3_SaIS3_EEEEPS3_S3_ET0_T_SC_SB_RSaIT1_E, symObjAddr: 0xCF98, symBinAddr: 0x10001257C, symSize: 0x30 }
  - { offsetInCU: 0x27840, offset: 0x27840, size: 0x8, addend: 0x0, symName: __ZNKSt6vectorISt7complexIdESaIS1_EE3endEv, symObjAddr: 0xCF70, symBinAddr: 0x100012554, symSize: 0x28 }
  - { offsetInCU: 0x27868, offset: 0x27868, size: 0x8, addend: 0x0, symName: __ZNKSt6vectorISt7complexIdESaIS1_EE5beginEv, symObjAddr: 0xCF4C, symBinAddr: 0x100012530, symSize: 0x24 }
  - { offsetInCU: 0x278F3, offset: 0x278F3, size: 0x8, addend: 0x0, symName: __ZNSt12_Vector_baseISt7complexIdESaIS1_EEC2EmRKS2_, symObjAddr: 0xCEF8, symBinAddr: 0x1000124DC, symSize: 0x54 }
  - { offsetInCU: 0x27911, offset: 0x27911, size: 0x8, addend: 0x0, symName: __ZNKSt12_Vector_baseISt7complexIdESaIS1_EE19_M_get_Tp_allocatorEv, symObjAddr: 0xCEE4, symBinAddr: 0x1000124C8, symSize: 0x14 }
  - { offsetInCU: 0x27935, offset: 0x27935, size: 0x8, addend: 0x0, symName: __ZSt22__uninitialized_copy_aIPSt6vectorISt7complexIdESaIS2_EES5_S4_ET0_T_S7_S6_RSaIT1_E, symObjAddr: 0xCEB4, symBinAddr: 0x100012498, symSize: 0x30 }
  - { offsetInCU: 0x279A0, offset: 0x279A0, size: 0x8, addend: 0x0, symName: __ZSt4copyIPSt6vectorISt7complexIdESaIS2_EES5_ET0_T_S7_S6_, symObjAddr: 0xCE6C, symBinAddr: 0x100012450, symSize: 0x48 }
  - { offsetInCU: 0x27A35, offset: 0x27A35, size: 0x8, addend: 0x0, symName: __ZSt4copyIN9__gnu_cxx17__normal_iteratorIPKSt6vectorISt7complexIdESaIS4_EES2_IS6_SaIS6_EEEENS1_IPS6_SA_EEET0_T_SF_SE_, symObjAddr: 0xCE24, symBinAddr: 0x100012408, symSize: 0x48 }
  - { offsetInCU: 0x27A93, offset: 0x27A93, size: 0x8, addend: 0x0, symName: __ZNSt6vectorIS_ISt7complexIdESaIS1_EESaIS3_EE5beginEv, symObjAddr: 0xCE00, symBinAddr: 0x1000123E4, symSize: 0x24 }
  - { offsetInCU: 0x27ABB, offset: 0x27ABB, size: 0x8, addend: 0x0, symName: __ZNSt6vectorIS_ISt7complexIdESaIS1_EESaIS3_EE20_M_allocate_and_copyIN9__gnu_cxx17__normal_iteratorIPKS3_S5_EEEEPS3_mT_SD_, symObjAddr: 0xCD7C, symBinAddr: 0x100012360, symSize: 0x84 }
  - { offsetInCU: 0x27B2C, offset: 0x27B2C, size: 0x8, addend: 0x0, symName: __ZNKSt6vectorIS_ISt7complexIdESaIS1_EESaIS3_EE3endEv, symObjAddr: 0xCD54, symBinAddr: 0x100012338, symSize: 0x28 }
  - { offsetInCU: 0x27B54, offset: 0x27B54, size: 0x8, addend: 0x0, symName: __ZNKSt6vectorIS_ISt7complexIdESaIS1_EESaIS3_EE5beginEv, symObjAddr: 0xCD30, symBinAddr: 0x100012314, symSize: 0x24 }
  - { offsetInCU: 0x27B7C, offset: 0x27B7C, size: 0x8, addend: 0x0, symName: __ZNKSt6vectorIS_ISt7complexIdESaIS1_EESaIS3_EE8capacityEv, symObjAddr: 0xCCFC, symBinAddr: 0x1000122E0, symSize: 0x34 }
  - { offsetInCU: 0x27BA4, offset: 0x27BA4, size: 0x8, addend: 0x0, symName: __ZNKSt6vectorIS_ISt7complexIdESaIS1_EESaIS3_EE4sizeEv, symObjAddr: 0xCCC8, symBinAddr: 0x1000122AC, symSize: 0x34 }
  - { offsetInCU: 0x27BF9, offset: 0x27BF9, size: 0x8, addend: 0x0, symName: __ZNSt6vectorIS_ISt7complexIdESaIS1_EESaIS3_EE5clearEv, symObjAddr: 0xCC9C, symBinAddr: 0x100012280, symSize: 0x2C }
  - { offsetInCU: 0x27C33, offset: 0x27C33, size: 0x8, addend: 0x0, symName: __ZNKSt12_Vector_baseISt6vectorISt7complexIdESaIS2_EESaIS4_EE19_M_get_Tp_allocatorEv, symObjAddr: 0xCC88, symBinAddr: 0x10001226C, symSize: 0x14 }
  - { offsetInCU: 0x27C57, offset: 0x27C57, size: 0x8, addend: 0x0, symName: __ZSt11__addressofIKSt6vectorIS0_ISt7complexIdESaIS2_EESaIS4_EEEPT_RS8_, symObjAddr: 0xCC74, symBinAddr: 0x100012258, symSize: 0x14 }
  - { offsetInCU: 0x27C87, offset: 0x27C87, size: 0x8, addend: 0x0, symName: __ZSt22__uninitialized_copy_aIPSt6vectorIS0_IiSaIiEESaIS2_EES5_S4_ET0_T_S7_S6_RSaIT1_E, symObjAddr: 0xCC44, symBinAddr: 0x100012228, symSize: 0x30 }
  - { offsetInCU: 0x27CF2, offset: 0x27CF2, size: 0x8, addend: 0x0, symName: __ZSt4copyIPSt6vectorIS0_IiSaIiEESaIS2_EES5_ET0_T_S7_S6_, symObjAddr: 0xCBFC, symBinAddr: 0x1000121E0, symSize: 0x48 }
  - { offsetInCU: 0x27D8B, offset: 0x27D8B, size: 0x8, addend: 0x0, symName: __ZNSt6vectorIS_IS_IiSaIiEESaIS1_EESaIS3_EE3endEv, symObjAddr: 0xCBD4, symBinAddr: 0x1000121B8, symSize: 0x28 }
  - { offsetInCU: 0x27DAF, offset: 0x27DAF, size: 0x8, addend: 0x0, symName: __ZSt4copyIN9__gnu_cxx17__normal_iteratorIPKSt6vectorIS2_IiSaIiEESaIS4_EES2_IS6_SaIS6_EEEENS1_IPS6_SA_EEET0_T_SF_SE_, symObjAddr: 0xCB8C, symBinAddr: 0x100012170, symSize: 0x48 }
  - { offsetInCU: 0x27E0D, offset: 0x27E0D, size: 0x8, addend: 0x0, symName: __ZNSt6vectorIS_IS_IiSaIiEESaIS1_EESaIS3_EE5beginEv, symObjAddr: 0xCB68, symBinAddr: 0x10001214C, symSize: 0x24 }
  - { offsetInCU: 0x27E35, offset: 0x27E35, size: 0x8, addend: 0x0, symName: __ZNSt6vectorIS_IS_IiSaIiEESaIS1_EESaIS3_EE20_M_allocate_and_copyIN9__gnu_cxx17__normal_iteratorIPKS3_S5_EEEEPS3_mT_SD_, symObjAddr: 0xCAE4, symBinAddr: 0x1000120C8, symSize: 0x84 }
  - { offsetInCU: 0x27EA6, offset: 0x27EA6, size: 0x8, addend: 0x0, symName: __ZNKSt6vectorIS_IS_IiSaIiEESaIS1_EESaIS3_EE3endEv, symObjAddr: 0xCABC, symBinAddr: 0x1000120A0, symSize: 0x28 }
  - { offsetInCU: 0x27ECE, offset: 0x27ECE, size: 0x8, addend: 0x0, symName: __ZNKSt6vectorIS_IS_IiSaIiEESaIS1_EESaIS3_EE5beginEv, symObjAddr: 0xCA98, symBinAddr: 0x10001207C, symSize: 0x24 }
  - { offsetInCU: 0x27EF6, offset: 0x27EF6, size: 0x8, addend: 0x0, symName: __ZNKSt6vectorIS_IS_IiSaIiEESaIS1_EESaIS3_EE8capacityEv, symObjAddr: 0xCA64, symBinAddr: 0x100012048, symSize: 0x34 }
  - { offsetInCU: 0x27F1E, offset: 0x27F1E, size: 0x8, addend: 0x0, symName: __ZNKSt6vectorIS_IS_IiSaIiEESaIS1_EESaIS3_EE4sizeEv, symObjAddr: 0xCA30, symBinAddr: 0x100012014, symSize: 0x34 }
  - { offsetInCU: 0x27F73, offset: 0x27F73, size: 0x8, addend: 0x0, symName: __ZNSt6vectorIS_IS_IiSaIiEESaIS1_EESaIS3_EE5clearEv, symObjAddr: 0xCA04, symBinAddr: 0x100011FE8, symSize: 0x2C }
  - { offsetInCU: 0x27FAD, offset: 0x27FAD, size: 0x8, addend: 0x0, symName: __ZNKSt12_Vector_baseISt6vectorIS0_IiSaIiEESaIS2_EESaIS4_EE19_M_get_Tp_allocatorEv, symObjAddr: 0xC9F0, symBinAddr: 0x100011FD4, symSize: 0x14 }
  - { offsetInCU: 0x27FD1, offset: 0x27FD1, size: 0x8, addend: 0x0, symName: __ZSt11__addressofIKSt6vectorIS0_IS0_IiSaIiEESaIS2_EESaIS4_EEEPT_RS8_, symObjAddr: 0xC9DC, symBinAddr: 0x100011FC0, symSize: 0x14 }
  - { offsetInCU: 0x28005, offset: 0x28005, size: 0x8, addend: 0x0, symName: __ZNSt6vectorISt7complexIdESaIS1_EE14_M_move_assignEOS3_St17integral_constantIbLb1EE, symObjAddr: 0xC948, symBinAddr: 0x100011F2C, symSize: 0x94 }
  - { offsetInCU: 0x280A4, offset: 0x280A4, size: 0x8, addend: 0x0, symName: __ZNSt6vectorIS_IdSaIdEESaIS1_EE14_M_move_assignEOS3_St17integral_constantIbLb1EE, symObjAddr: 0xC8B4, symBinAddr: 0x100011E98, symSize: 0x94 }
  - { offsetInCU: 0x28145, offset: 0x28145, size: 0x8, addend: 0x0, symName: __ZSt4moveIRSt6vectorIS0_IdSaIdEESaIS2_EEEONSt16remove_referenceIT_E4typeEOS7_, symObjAddr: 0xC8A0, symBinAddr: 0x100011E84, symSize: 0x14 }
  - { offsetInCU: 0x28179, offset: 0x28179, size: 0x8, addend: 0x0, symName: __ZNSt6vectorIS_IS_IiSaIiEESaIS1_EESaIS3_EE14_M_move_assignEOS5_St17integral_constantIbLb1EE, symObjAddr: 0xC80C, symBinAddr: 0x100011DF0, symSize: 0x94 }
  - { offsetInCU: 0x2821A, offset: 0x2821A, size: 0x8, addend: 0x0, symName: __ZSt4moveIRSt6vectorIS0_IS0_IiSaIiEESaIS2_EESaIS4_EEEONSt16remove_referenceIT_E4typeEOS9_, symObjAddr: 0xC7F8, symBinAddr: 0x100011DDC, symSize: 0x14 }
  - { offsetInCU: 0x2824E, offset: 0x2824E, size: 0x8, addend: 0x0, symName: __ZNSt6vectorIS_ISt7complexIdESaIS1_EESaIS3_EE14_M_move_assignEOS5_St17integral_constantIbLb1EE, symObjAddr: 0xC764, symBinAddr: 0x100011D48, symSize: 0x94 }
  - { offsetInCU: 0x282EF, offset: 0x282EF, size: 0x8, addend: 0x0, symName: __ZSt4moveIRSt6vectorIS0_ISt7complexIdESaIS2_EESaIS4_EEEONSt16remove_referenceIT_E4typeEOS9_, symObjAddr: 0xC750, symBinAddr: 0x100011D34, symSize: 0x14 }
  - { offsetInCU: 0x28323, offset: 0x28323, size: 0x8, addend: 0x0, symName: __ZNSt6vectorIS_IiSaIiEESaIS1_EE14_M_move_assignEOS3_St17integral_constantIbLb1EE, symObjAddr: 0xC6BC, symBinAddr: 0x100011CA0, symSize: 0x94 }
  - { offsetInCU: 0x283BE, offset: 0x283BE, size: 0x8, addend: 0x0, symName: __ZSt22__uninitialized_copy_aIPSt6vectorIiSaIiEES3_S2_ET0_T_S5_S4_RSaIT1_E, symObjAddr: 0xC68C, symBinAddr: 0x100011C70, symSize: 0x30 }
  - { offsetInCU: 0x28429, offset: 0x28429, size: 0x8, addend: 0x0, symName: __ZSt4copyIPSt6vectorIiSaIiEES3_ET0_T_S5_S4_, symObjAddr: 0xC644, symBinAddr: 0x100011C28, symSize: 0x48 }
  - { offsetInCU: 0x284BE, offset: 0x284BE, size: 0x8, addend: 0x0, symName: __ZSt4copyIN9__gnu_cxx17__normal_iteratorIPKSt6vectorIiSaIiEES2_IS4_SaIS4_EEEENS1_IPS4_S8_EEET0_T_SD_SC_, symObjAddr: 0xC5FC, symBinAddr: 0x100011BE0, symSize: 0x48 }
  - { offsetInCU: 0x2851C, offset: 0x2851C, size: 0x8, addend: 0x0, symName: __ZNSt6vectorIS_IiSaIiEESaIS1_EE20_M_allocate_and_copyIN9__gnu_cxx17__normal_iteratorIPKS1_S3_EEEEPS1_mT_SB_, symObjAddr: 0xC578, symBinAddr: 0x100011B5C, symSize: 0x84 }
  - { offsetInCU: 0x2858D, offset: 0x2858D, size: 0x8, addend: 0x0, symName: __ZNKSt6vectorIS_IiSaIiEESaIS1_EE8capacityEv, symObjAddr: 0xC544, symBinAddr: 0x100011B28, symSize: 0x34 }
  - { offsetInCU: 0x285F0, offset: 0x285F0, size: 0x8, addend: 0x0, symName: __ZSt11__addressofIKSt6vectorIS0_IiSaIiEESaIS2_EEEPT_RS6_, symObjAddr: 0xC530, symBinAddr: 0x100011B14, symSize: 0x14 }
  - { offsetInCU: 0x28620, offset: 0x28620, size: 0x8, addend: 0x0, symName: __ZSt11find_if_notIN9__gnu_cxx17__normal_iteratorIPiSt6vectorIiSaIiEEEEZ19remove_wrong_cyclesRS3_IS5_SaIS5_EERKS8_EUliE_ET_SD_SD_T0_, symObjAddr: 0xC4F4, symBinAddr: 0x100011AD8, symSize: 0x3C }
  - { offsetInCU: 0x2867E, offset: 0x2867E, size: 0x8, addend: 0x0, symName: __ZNK9__gnu_cxx17__normal_iteratorIPSt6vectorIiSaIiEES1_IS3_SaIS3_EEE4baseEv, symObjAddr: 0xC4E0, symBinAddr: 0x100011AC4, symSize: 0x14 }
  - { offsetInCU: 0x286A2, offset: 0x286A2, size: 0x8, addend: 0x0, symName: __ZN9__gnu_cxxeqIPKSt6vectorIiSaIiEES1_IS3_SaIS3_EEEEbRKNS_17__normal_iteratorIT_T0_EESD_, symObjAddr: 0xC49C, symBinAddr: 0x100011A80, symSize: 0x44 }
  - { offsetInCU: 0x286F0, offset: 0x286F0, size: 0x8, addend: 0x0, symName: __ZNSt6vectorIS_IiSaIiEESaIS1_EE18_M_fill_initializeEmRKS1_, symObjAddr: 0xC444, symBinAddr: 0x100011A28, symSize: 0x58 }
  - { offsetInCU: 0x28734, offset: 0x28734, size: 0x8, addend: 0x0, symName: __ZNSt6vectorIS_IiSaIiEESaIS1_EE17_S_check_init_lenEmRKS2_, symObjAddr: 0xC3C0, symBinAddr: 0x1000119A4, symSize: 0x84 }
  - { offsetInCU: 0x287E7, offset: 0x287E7, size: 0x8, addend: 0x0, symName: __ZNSt6vectorIiSaIiEE21_M_default_initializeEm, symObjAddr: 0xC370, symBinAddr: 0x100011954, symSize: 0x50 }
  - { offsetInCU: 0x2881F, offset: 0x2881F, size: 0x8, addend: 0x0, symName: __ZNSt6vectorIS_IS_IiSaIiEESaIS1_EESaIS3_EE12emplace_backIJS3_EEERS3_DpOT_, symObjAddr: 0xC284, symBinAddr: 0x100011868, symSize: 0xEC }
  - { offsetInCU: 0x288CC, offset: 0x288CC, size: 0x8, addend: 0x0, symName: __ZSt4moveIRSt6vectorIS0_IiSaIiEESaIS2_EEEONSt16remove_referenceIT_E4typeEOS7_, symObjAddr: 0xC270, symBinAddr: 0x100011854, symSize: 0x14 }
  - { offsetInCU: 0x28900, offset: 0x28900, size: 0x8, addend: 0x0, symName: __ZNSt6vectorIS_ISt7complexIdESaIS1_EESaIS3_EE12emplace_backIJS3_EEERS3_DpOT_, symObjAddr: 0xC184, symBinAddr: 0x100011768, symSize: 0xEC }
  - { offsetInCU: 0x289AD, offset: 0x289AD, size: 0x8, addend: 0x0, symName: __ZSt4moveIRSt6vectorISt7complexIdESaIS2_EEEONSt16remove_referenceIT_E4typeEOS7_, symObjAddr: 0xC170, symBinAddr: 0x100011754, symSize: 0x14 }
  - { offsetInCU: 0x289E1, offset: 0x289E1, size: 0x8, addend: 0x0, symName: __ZNSt6vectorISt7complexIdESaIS1_EE19_M_range_initializeIPKS1_EEvT_S7_St20forward_iterator_tag, symObjAddr: 0xC08C, symBinAddr: 0x100011670, symSize: 0xE4 }
  - { offsetInCU: 0x28AF9, offset: 0x28AF9, size: 0x8, addend: 0x0, symName: __ZNKSt16initializer_listISt7complexIdEE3endEv, symObjAddr: 0xC054, symBinAddr: 0x100011638, symSize: 0x38 }
  - { offsetInCU: 0x28B21, offset: 0x28B21, size: 0x8, addend: 0x0, symName: __ZNKSt16initializer_listISt7complexIdEE5beginEv, symObjAddr: 0xC03C, symBinAddr: 0x100011620, symSize: 0x18 }
  - { offsetInCU: 0x28B9D, offset: 0x28B9D, size: 0x8, addend: 0x0, symName: __ZNSt12_Vector_baseISt7complexIdESaIS1_EEC2ERKS2_, symObjAddr: 0xC014, symBinAddr: 0x1000115F8, symSize: 0x28 }
  - { offsetInCU: 0x28BB2, offset: 0x28BB2, size: 0x8, addend: 0x0, symName: __ZNSt6vectorISt7complexIdESaIS1_EE17_M_realloc_insertIJRKS1_EEEvN9__gnu_cxx17__normal_iteratorIPS1_S3_EEDpOT_, symObjAddr: 0xBE4C, symBinAddr: 0x100011430, symSize: 0x1C8 }
  - { offsetInCU: 0x28CD7, offset: 0x28CD7, size: 0x8, addend: 0x0, symName: __ZNSt6vectorISt7complexIdESaIS1_EE3endEv, symObjAddr: 0xBE24, symBinAddr: 0x100011408, symSize: 0x28 }
  - { offsetInCU: 0x28D43, offset: 0x28D43, size: 0x8, addend: 0x0, symName: __ZNSt6vectorIdSaIdEE14_M_move_assignEOS1_St17integral_constantIbLb1EE, symObjAddr: 0xBD90, symBinAddr: 0x100011374, symSize: 0x94 }
  - { offsetInCU: 0x28DE4, offset: 0x28DE4, size: 0x8, addend: 0x0, symName: __ZSt4moveIRSt6vectorIdSaIdEEEONSt16remove_referenceIT_E4typeEOS5_, symObjAddr: 0xBD7C, symBinAddr: 0x100011360, symSize: 0x14 }
  - { offsetInCU: 0x28E53, offset: 0x28E53, size: 0x8, addend: 0x0, symName: __ZNSt12_Vector_baseINSt7__cxx1112basic_stringIcSt11char_traitsIcESaIcEEESaIS5_EE19_M_get_Tp_allocatorEv, symObjAddr: 0xBD68, symBinAddr: 0x10001134C, symSize: 0x14 }
  - { offsetInCU: 0x28E7B, offset: 0x28E7B, size: 0x8, addend: 0x0, symName: __ZNSt6vectorINSt7__cxx1112basic_stringIcSt11char_traitsIcESaIcEEESaIS5_EE19_M_range_initializeISt16istream_iteratorIS5_cS3_lEEEvT_SB_St18input_iterator_tag, symObjAddr: 0xBCE4, symBinAddr: 0x1000112C8, symSize: 0x84 }
  - { offsetInCU: 0x28F52, offset: 0x28F52, size: 0x8, addend: 0x0, symName: __ZNSt16istream_iteratorINSt7__cxx1112basic_stringIcSt11char_traitsIcESaIcEEEcS3_lEC1ERKS6_, symObjAddr: 0xBC8C, symBinAddr: 0x100011270, symSize: 0x58 }
  - { offsetInCU: 0x28FB2, offset: 0x28FB2, size: 0x8, addend: 0x0, symName: __ZNSt12_Vector_baseINSt7__cxx1112basic_stringIcSt11char_traitsIcESaIcEEESaIS5_EED2Ev, symObjAddr: 0xBC3C, symBinAddr: 0x100011220, symSize: 0x50 }
  - { offsetInCU: 0x29002, offset: 0x29002, size: 0x8, addend: 0x0, symName: __ZNSt12_Vector_baseINSt7__cxx1112basic_stringIcSt11char_traitsIcESaIcEEESaIS5_EEC2ERKS6_, symObjAddr: 0xBC14, symBinAddr: 0x1000111F8, symSize: 0x28 }
  - { offsetInCU: 0x29060, offset: 0x29060, size: 0x8, addend: 0x0, symName: __ZNSt12_Vector_baseINSt7__cxx1112basic_stringIcSt11char_traitsIcESaIcEEESaIS5_EE12_Vector_implD1Ev, symObjAddr: 0xBBE8, symBinAddr: 0x1000111CC, symSize: 0x2C }
  - { offsetInCU: 0x290B8, offset: 0x290B8, size: 0x8, addend: 0x0, symName: __ZNSt15__new_allocatorINSt7__cxx1112basic_stringIcSt11char_traitsIcESaIcEEEED2Ev, symObjAddr: 0xBBD4, symBinAddr: 0x1000111B8, symSize: 0x14 }
  - { offsetInCU: 0x290A5, offset: 0x290A5, size: 0x8, addend: 0x0, symName: __ZNSt16istream_iteratorINSt7__cxx1112basic_stringIcSt11char_traitsIcESaIcEEEcS3_lE7_M_readEv, symObjAddr: 0xBB48, symBinAddr: 0x10001112C, symSize: 0x8C }
  - { offsetInCU: 0x290C9, offset: 0x290C9, size: 0x8, addend: 0x0, symName: __ZSt11__addressofISiEPT_RS0_, symObjAddr: 0xBB34, symBinAddr: 0x100011118, symSize: 0x14 }
  - { offsetInCU: 0x29166, offset: 0x29166, size: 0x8, addend: 0x0, symName: __ZNSt12_Vector_baseISt6vectorIiSaIiEESaIS2_EE17_Vector_impl_dataC2EOS5_, symObjAddr: 0xBAC4, symBinAddr: 0x1000110A8, symSize: 0x70 }
  - { offsetInCU: 0x2917A, offset: 0x2917A, size: 0x8, addend: 0x0, symName: __ZSt4moveIRNSt12_Vector_baseISt6vectorIiSaIiEESaIS3_EE12_Vector_implEEONSt16remove_referenceIT_E4typeEOS9_, symObjAddr: 0xBAB0, symBinAddr: 0x100011094, symSize: 0x14 }
  - { offsetInCU: 0x29213, offset: 0x29213, size: 0x8, addend: 0x0, symName: __ZNSt12_Vector_baseISt7complexIdESaIS1_EE17_Vector_impl_dataC2EOS4_, symObjAddr: 0xBA40, symBinAddr: 0x100011024, symSize: 0x70 }
  - { offsetInCU: 0x2922B, offset: 0x2922B, size: 0x8, addend: 0x0, symName: __ZSt4moveIRNSt12_Vector_baseISt7complexIdESaIS2_EE12_Vector_implEEONSt16remove_referenceIT_E4typeEOS8_, symObjAddr: 0xBA2C, symBinAddr: 0x100011010, symSize: 0x14 }
  - { offsetInCU: 0x292BB, offset: 0x292BB, size: 0x8, addend: 0x0, symName: __ZNSt12_Vector_baseISt6vectorIS0_IiSaIiEESaIS2_EESaIS4_EE19_M_get_Tp_allocatorEv, symObjAddr: 0xBA18, symBinAddr: 0x100010FFC, symSize: 0x14 }
  - { offsetInCU: 0x292E3, offset: 0x292E3, size: 0x8, addend: 0x0, symName: __ZNSt12_Vector_baseISt6vectorIS0_IiSaIiEESaIS2_EESaIS4_EE13_M_deallocateEPS4_m, symObjAddr: 0xB9C0, symBinAddr: 0x100010FA4, symSize: 0x58 }
  - { offsetInCU: 0x293B8, offset: 0x293B8, size: 0x8, addend: 0x0, symName: __ZNSt15__new_allocatorISt6vectorIS0_IiSaIiEESaIS2_EEED2Ev, symObjAddr: 0xB9AC, symBinAddr: 0x100010F90, symSize: 0x14 }
  - { offsetInCU: 0x2940D, offset: 0x2940D, size: 0x8, addend: 0x0, symName: __ZNSt12_Vector_baseISt6vectorIS0_IiSaIiEESaIS2_EESaIS4_EE17_Vector_impl_dataC1Ev, symObjAddr: 0xB980, symBinAddr: 0x100010F64, symSize: 0x2C }
  - { offsetInCU: 0x29437, offset: 0x29437, size: 0x8, addend: 0x0, symName: __ZNSt12_Vector_baseISt6vectorIS0_IiSaIiEESaIS2_EESaIS4_EE17_Vector_impl_dataC2Ev, symObjAddr: 0xB954, symBinAddr: 0x100010F38, symSize: 0x2C }
  - { offsetInCU: 0x29445, offset: 0x29445, size: 0x8, addend: 0x0, symName: __ZNSt6vectorIS_ISt7complexIdESaIS1_EESaIS3_EE17_M_realloc_insertIJRKS3_EEEvN9__gnu_cxx17__normal_iteratorIPS3_S5_EEDpOT_, symObjAddr: 0xB688, symBinAddr: 0x100010C6C, symSize: 0x2CC }
  - { offsetInCU: 0x295F9, offset: 0x295F9, size: 0x8, addend: 0x0, symName: __ZNSt6vectorIS_ISt7complexIdESaIS1_EESaIS3_EE3endEv, symObjAddr: 0xB660, symBinAddr: 0x100010C44, symSize: 0x28 }
  - { offsetInCU: 0x29665, offset: 0x29665, size: 0x8, addend: 0x0, symName: __ZNSt6vectorISt7complexIdESaIS1_EE12emplace_backIJS1_EEERS1_DpOT_, symObjAddr: 0xB570, symBinAddr: 0x100010B54, symSize: 0xF0 }
  - { offsetInCU: 0x29712, offset: 0x29712, size: 0x8, addend: 0x0, symName: __ZSt4moveIRSt7complexIdEEONSt16remove_referenceIT_E4typeEOS4_, symObjAddr: 0xB55C, symBinAddr: 0x100010B40, symSize: 0x14 }
  - { offsetInCU: 0x29781, offset: 0x29781, size: 0x8, addend: 0x0, symName: __ZNSt12_Vector_baseISt7complexIdESaIS1_EE19_M_get_Tp_allocatorEv, symObjAddr: 0xB548, symBinAddr: 0x100010B2C, symSize: 0x14 }
  - { offsetInCU: 0x297A9, offset: 0x297A9, size: 0x8, addend: 0x0, symName: __ZNSt12_Vector_baseISt7complexIdESaIS1_EE13_M_deallocateEPS1_m, symObjAddr: 0xB4F0, symBinAddr: 0x100010AD4, symSize: 0x58 }
  - { offsetInCU: 0x2986E, offset: 0x2986E, size: 0x8, addend: 0x0, symName: __ZNSt15__new_allocatorISt7complexIdEED2Ev, symObjAddr: 0xB4DC, symBinAddr: 0x100010AC0, symSize: 0x14 }
  - { offsetInCU: 0x298C3, offset: 0x298C3, size: 0x8, addend: 0x0, symName: __ZNSt12_Vector_baseISt7complexIdESaIS1_EE17_Vector_impl_dataC1Ev, symObjAddr: 0xB4B0, symBinAddr: 0x100010A94, symSize: 0x2C }
  - { offsetInCU: 0x298ED, offset: 0x298ED, size: 0x8, addend: 0x0, symName: __ZNSt12_Vector_baseISt7complexIdESaIS1_EE17_Vector_impl_dataC2Ev, symObjAddr: 0xB484, symBinAddr: 0x100010A68, symSize: 0x2C }
  - { offsetInCU: 0x298D6, offset: 0x298D6, size: 0x8, addend: 0x0, symName: __ZNSt6vectorIdSaIdEE19_M_range_initializeIN9__gnu_cxx17__normal_iteratorIPdS1_EEEEvT_S7_St20forward_iterator_tag, symObjAddr: 0xB3A0, symBinAddr: 0x100010984, symSize: 0xE4 }
  - { offsetInCU: 0x29A4A, offset: 0x29A4A, size: 0x8, addend: 0x0, symName: __ZNSt12_Vector_baseIdSaIdEEC2ERKS0_, symObjAddr: 0xB378, symBinAddr: 0x10001095C, symSize: 0x28 }
  - { offsetInCU: 0x29AB9, offset: 0x29AB9, size: 0x8, addend: 0x0, symName: __ZN9__gnu_cxx17__normal_iteratorIPdSt6vectorIdSaIdEEEC1ERKS1_, symObjAddr: 0xB350, symBinAddr: 0x100010934, symSize: 0x28 }
  - { offsetInCU: 0x29AE9, offset: 0x29AE9, size: 0x8, addend: 0x0, symName: __ZNSt12_Vector_baseISt6vectorISt7complexIdESaIS2_EESaIS4_EE19_M_get_Tp_allocatorEv, symObjAddr: 0xB33C, symBinAddr: 0x100010920, symSize: 0x14 }
  - { offsetInCU: 0x29B11, offset: 0x29B11, size: 0x8, addend: 0x0, symName: __ZNSt12_Vector_baseISt6vectorISt7complexIdESaIS2_EESaIS4_EE13_M_deallocateEPS4_m, symObjAddr: 0xB2E4, symBinAddr: 0x1000108C8, symSize: 0x58 }
  - { offsetInCU: 0x29BE8, offset: 0x29BE8, size: 0x8, addend: 0x0, symName: __ZNSt15__new_allocatorISt6vectorISt7complexIdESaIS2_EEED2Ev, symObjAddr: 0xB2D0, symBinAddr: 0x1000108B4, symSize: 0x14 }
  - { offsetInCU: 0x29C3D, offset: 0x29C3D, size: 0x8, addend: 0x0, symName: __ZNSt12_Vector_baseISt6vectorISt7complexIdESaIS2_EESaIS4_EE17_Vector_impl_dataC1Ev, symObjAddr: 0xB2A4, symBinAddr: 0x100010888, symSize: 0x2C }
  - { offsetInCU: 0x29C67, offset: 0x29C67, size: 0x8, addend: 0x0, symName: __ZNSt12_Vector_baseISt6vectorISt7complexIdESaIS2_EESaIS4_EE17_Vector_impl_dataC2Ev, symObjAddr: 0xB278, symBinAddr: 0x10001085C, symSize: 0x2C }
  - { offsetInCU: 0x29C4E, offset: 0x29C4E, size: 0x8, addend: 0x0, symName: __ZSt11__addressofINSt7__cxx1112basic_stringIcSt11char_traitsIcESaIcEEEEPT_RS6_, symObjAddr: 0xB264, symBinAddr: 0x100010848, symSize: 0x14 }
  - { offsetInCU: 0x29C82, offset: 0x29C82, size: 0x8, addend: 0x0, symName: __ZNSt6vectorIdSaIdEE12emplace_backIJdEEERdDpOT_, symObjAddr: 0xB17C, symBinAddr: 0x100010760, symSize: 0xE8 }
  - { offsetInCU: 0x29D2F, offset: 0x29D2F, size: 0x8, addend: 0x0, symName: __ZSt4moveIRdEONSt16remove_referenceIT_E4typeEOS2_, symObjAddr: 0xB168, symBinAddr: 0x10001074C, symSize: 0x14 }
  - { offsetInCU: 0x29DAA, offset: 0x29DAA, size: 0x8, addend: 0x0, symName: __ZNSt12_Vector_baseIdSaIdEE17_Vector_impl_dataC1Ev, symObjAddr: 0xB13C, symBinAddr: 0x100010720, symSize: 0x2C }
  - { offsetInCU: 0x29DD4, offset: 0x29DD4, size: 0x8, addend: 0x0, symName: __ZNSt12_Vector_baseIdSaIdEE17_Vector_impl_dataC2Ev, symObjAddr: 0xB110, symBinAddr: 0x1000106F4, symSize: 0x2C }
  - { offsetInCU: 0x29DCB, offset: 0x29DCB, size: 0x8, addend: 0x0, symName: __ZNSt12_Vector_baseIdSaIdEE13_M_deallocateEPdm, symObjAddr: 0xB0B8, symBinAddr: 0x10001069C, symSize: 0x58 }
  - { offsetInCU: 0x29EA0, offset: 0x29EA0, size: 0x8, addend: 0x0, symName: __ZNSt12_Vector_baseIdSaIdEE17_Vector_impl_dataC2EOS2_, symObjAddr: 0xB048, symBinAddr: 0x10001062C, symSize: 0x70 }
  - { offsetInCU: 0x29EC6, offset: 0x29EC6, size: 0x8, addend: 0x0, symName: __ZSt4moveIRNSt12_Vector_baseIdSaIdEE12_Vector_implEEONSt16remove_referenceIT_E4typeEOS6_, symObjAddr: 0xB034, symBinAddr: 0x100010618, symSize: 0x14 }
  - { offsetInCU: 0x29EFA, offset: 0x29EFA, size: 0x8, addend: 0x0, symName: __ZNSt6vectorIiSaIiEE8_M_eraseEN9__gnu_cxx17__normal_iteratorIPiS1_EE, symObjAddr: 0xAF74, symBinAddr: 0x100010558, symSize: 0xC0 }
  - { offsetInCU: 0x29F8C, offset: 0x29F8C, size: 0x8, addend: 0x0, symName: __ZN9__gnu_cxxmiIPKiSt6vectorIiSaIiEEEENS_17__normal_iteratorIT_T0_E15difference_typeERKS9_SC_, symObjAddr: 0xAF34, symBinAddr: 0x100010518, symSize: 0x40 }
  - { offsetInCU: 0x29FDA, offset: 0x29FDA, size: 0x8, addend: 0x0, symName: __ZNKSt6vectorIiSaIiEE6cbeginEv, symObjAddr: 0xAF10, symBinAddr: 0x1000104F4, symSize: 0x24 }
  - { offsetInCU: 0x29FFE, offset: 0x29FFE, size: 0x8, addend: 0x0, symName: __ZSt6__sortIN9__gnu_cxx17__normal_iteratorIPiSt6vectorIiSaIiEEEENS0_5__ops15_Iter_less_iterEEvT_S9_T0_, symObjAddr: 0xAE98, symBinAddr: 0x10001047C, symSize: 0x78 }
  - { offsetInCU: 0x2A05E, offset: 0x2A05E, size: 0x8, addend: 0x0, symName: __ZSt7forwardIiEOT_RNSt16remove_referenceIS0_E4typeE, symObjAddr: 0xAE84, symBinAddr: 0x100010468, symSize: 0x14 }
  - { offsetInCU: 0x2A094, offset: 0x2A094, size: 0x8, addend: 0x0, symName: __ZSt7forwardIRiEOT_RNSt16remove_referenceIS1_E4typeE, symObjAddr: 0xAE70, symBinAddr: 0x100010454, symSize: 0x14 }
  - { offsetInCU: 0x2A0CA, offset: 0x2A0CA, size: 0x8, addend: 0x0, symName: __ZSt7forwardIbEOT_RNSt16remove_referenceIS0_E4typeE, symObjAddr: 0xAE5C, symBinAddr: 0x100010440, symSize: 0x14 }
  - { offsetInCU: 0x2A0FA, offset: 0x2A0FA, size: 0x8, addend: 0x0, symName: __ZSt22__uninitialized_copy_aIPiS0_iET0_T_S2_S1_RSaIT1_E, symObjAddr: 0xAE2C, symBinAddr: 0x100010410, symSize: 0x30 }
  - { offsetInCU: 0x2A165, offset: 0x2A165, size: 0x8, addend: 0x0, symName: __ZSt4copyIPiS0_ET0_T_S2_S1_, symObjAddr: 0xADE4, symBinAddr: 0x1000103C8, symSize: 0x48 }
  - { offsetInCU: 0x2A1FA, offset: 0x2A1FA, size: 0x8, addend: 0x0, symName: __ZSt4copyIN9__gnu_cxx17__normal_iteratorIPKiSt6vectorIiSaIiEEEENS1_IPiS6_EEET0_T_SB_SA_, symObjAddr: 0xAD9C, symBinAddr: 0x100010380, symSize: 0x48 }
  - { offsetInCU: 0x2A258, offset: 0x2A258, size: 0x8, addend: 0x0, symName: __ZNSt6vectorIiSaIiEE20_M_allocate_and_copyIN9__gnu_cxx17__normal_iteratorIPKiS1_EEEEPimT_S9_, symObjAddr: 0xAD18, symBinAddr: 0x1000102FC, symSize: 0x84 }
  - { offsetInCU: 0x2A2C9, offset: 0x2A2C9, size: 0x8, addend: 0x0, symName: __ZNKSt6vectorIiSaIiEE8capacityEv, symObjAddr: 0xACF0, symBinAddr: 0x1000102D4, symSize: 0x28 }
  - { offsetInCU: 0x2A31E, offset: 0x2A31E, size: 0x8, addend: 0x0, symName: __ZNSt6vectorIiSaIiEE5clearEv, symObjAddr: 0xACC4, symBinAddr: 0x1000102A8, symSize: 0x2C }
  - { offsetInCU: 0x2A354, offset: 0x2A354, size: 0x8, addend: 0x0, symName: __ZSt11__addressofIKSt6vectorIiSaIiEEEPT_RS4_, symObjAddr: 0xACB0, symBinAddr: 0x100010294, symSize: 0x14 }
  - { offsetInCU: 0x2A388, offset: 0x2A388, size: 0x8, addend: 0x0, symName: __ZNSt6vectorIiSaIiEE14_M_move_assignEOS1_St17integral_constantIbLb1EE, symObjAddr: 0xAC1C, symBinAddr: 0x100010200, symSize: 0x94 }
  - { offsetInCU: 0x2A429, offset: 0x2A429, size: 0x8, addend: 0x0, symName: __ZSt4moveIRSt6vectorIiSaIiEEEONSt16remove_referenceIT_E4typeEOS5_, symObjAddr: 0xAC08, symBinAddr: 0x1000101EC, symSize: 0x14 }
  - { offsetInCU: 0x2A459, offset: 0x2A459, size: 0x8, addend: 0x0, symName: __ZSt6__sortIN9__gnu_cxx17__normal_iteratorIPSt6vectorIiSaIiEES2_IS4_SaIS4_EEEENS0_5__ops15_Iter_comp_iterIPFbRKS4_SC_EEEEvT_SG_T0_, symObjAddr: 0xAB98, symBinAddr: 0x10001017C, symSize: 0x70 }
  - { offsetInCU: 0x2A4B3, offset: 0x2A4B3, size: 0x8, addend: 0x0, symName: __ZN9__gnu_cxx5__ops16__iter_comp_iterIPFbRKSt6vectorIiSaIiEES6_EEENS0_15_Iter_comp_iterIT_EESA_, symObjAddr: 0xAB6C, symBinAddr: 0x100010150, symSize: 0x2C }
  - { offsetInCU: 0x2A555, offset: 0x2A555, size: 0x8, addend: 0x0, symName: __ZN9__gnu_cxx17__normal_iteratorIPSt6vectorIiSaIiEES1_IS3_SaIS3_EEEC1ERKS4_, symObjAddr: 0xAB44, symBinAddr: 0x100010128, symSize: 0x28 }
  - { offsetInCU: 0x2A53C, offset: 0x2A53C, size: 0x8, addend: 0x0, symName: __ZNSt6vectorIiSaIiEE12emplace_backIJiEEERiDpOT_, symObjAddr: 0xAA5C, symBinAddr: 0x100010040, symSize: 0xE8 }
  - { offsetInCU: 0x2A5E9, offset: 0x2A5E9, size: 0x8, addend: 0x0, symName: __ZSt4moveIRiEONSt16remove_referenceIT_E4typeEOS2_, symObjAddr: 0xAA48, symBinAddr: 0x10001002C, symSize: 0x14 }
  - { offsetInCU: 0x2A619, offset: 0x2A619, size: 0x8, addend: 0x0, symName: __ZSt22__uninitialized_copy_aIN9__gnu_cxx17__normal_iteratorIPKdSt6vectorIdSaIdEEEEPddET0_T_SA_S9_RSaIT1_E, symObjAddr: 0xAA18, symBinAddr: 0x10000FFFC, symSize: 0x30 }
  - { offsetInCU: 0x2A688, offset: 0x2A688, size: 0x8, addend: 0x0, symName: __ZNKSt6vectorIdSaIdEE3endEv, symObjAddr: 0xA9F0, symBinAddr: 0x10000FFD4, symSize: 0x28 }
  - { offsetInCU: 0x2A6B0, offset: 0x2A6B0, size: 0x8, addend: 0x0, symName: __ZNKSt6vectorIdSaIdEE5beginEv, symObjAddr: 0xA9CC, symBinAddr: 0x10000FFB0, symSize: 0x24 }
  - { offsetInCU: 0x2A6ED, offset: 0x2A6ED, size: 0x8, addend: 0x0, symName: __ZNKSt12_Vector_baseIdSaIdEE19_M_get_Tp_allocatorEv, symObjAddr: 0xA9B8, symBinAddr: 0x10000FF9C, symSize: 0x14 }
  - { offsetInCU: 0x2A715, offset: 0x2A715, size: 0x8, addend: 0x0, symName: __ZNSt6vectorIS_IdSaIdEESaIS1_EE17_M_realloc_insertIJRKS1_EEEvN9__gnu_cxx17__normal_iteratorIPS1_S3_EEDpOT_, symObjAddr: 0xA6EC, symBinAddr: 0x10000FCD0, symSize: 0x2CC }
  - { offsetInCU: 0x2A8C9, offset: 0x2A8C9, size: 0x8, addend: 0x0, symName: __ZNSt6vectorIS_IdSaIdEESaIS1_EE3endEv, symObjAddr: 0xA6C4, symBinAddr: 0x10000FCA8, symSize: 0x28 }
  - { offsetInCU: 0x2A931, offset: 0x2A931, size: 0x8, addend: 0x0, symName: __ZSt22__uninitialized_copy_aIN9__gnu_cxx17__normal_iteratorIPKiSt6vectorIiSaIiEEEEPiiET0_T_SA_S9_RSaIT1_E, symObjAddr: 0xA694, symBinAddr: 0x10000FC78, symSize: 0x30 }
  - { offsetInCU: 0x2A9A0, offset: 0x2A9A0, size: 0x8, addend: 0x0, symName: __ZNKSt6vectorIiSaIiEE3endEv, symObjAddr: 0xA66C, symBinAddr: 0x10000FC50, symSize: 0x28 }
  - { offsetInCU: 0x2A9C8, offset: 0x2A9C8, size: 0x8, addend: 0x0, symName: __ZNKSt6vectorIiSaIiEE5beginEv, symObjAddr: 0xA648, symBinAddr: 0x10000FC2C, symSize: 0x24 }
  - { offsetInCU: 0x2AA05, offset: 0x2AA05, size: 0x8, addend: 0x0, symName: __ZNKSt12_Vector_baseIiSaIiEE19_M_get_Tp_allocatorEv, symObjAddr: 0xA634, symBinAddr: 0x10000FC18, symSize: 0x14 }
  - { offsetInCU: 0x2AA86, offset: 0x2AA86, size: 0x8, addend: 0x0, symName: __ZNSt12_Vector_baseISt6vectorIdSaIdEESaIS2_EE17_Vector_impl_dataC1Ev, symObjAddr: 0xA608, symBinAddr: 0x10000FBEC, symSize: 0x2C }
  - { offsetInCU: 0x2AAB0, offset: 0x2AAB0, size: 0x8, addend: 0x0, symName: __ZNSt12_Vector_baseISt6vectorIdSaIdEESaIS2_EE17_Vector_impl_dataC2Ev, symObjAddr: 0xA5DC, symBinAddr: 0x10000FBC0, symSize: 0x2C }
  - { offsetInCU: 0x2AA95, offset: 0x2AA95, size: 0x8, addend: 0x0, symName: __ZNSt6vectorIS_IiSaIiEESaIS1_EE17_M_realloc_insertIJRKS1_EEEvN9__gnu_cxx17__normal_iteratorIPS1_S3_EEDpOT_, symObjAddr: 0xA310, symBinAddr: 0x10000F8F4, symSize: 0x2CC }
  - { offsetInCU: 0x2AC8D, offset: 0x2AC8D, size: 0x8, addend: 0x0, symName: __ZNK9__gnu_cxx17__normal_iteratorIPiSt6vectorIiSaIiEEE4baseEv, symObjAddr: 0xA2FC, symBinAddr: 0x10000F8E0, symSize: 0x14 }
  - { offsetInCU: 0x2ACB1, offset: 0x2ACB1, size: 0x8, addend: 0x0, symName: __ZSt9__find_ifIN9__gnu_cxx17__normal_iteratorIPiSt6vectorIiSaIiEEEENS0_5__ops16_Iter_equals_valIKiEEET_SB_SB_T0_, symObjAddr: 0xA2CC, symBinAddr: 0x10000F8B0, symSize: 0x30 }
  - { offsetInCU: 0x2AD2C, offset: 0x2AD2C, size: 0x8, addend: 0x0, symName: __ZN9__gnu_cxx5__ops17__iter_equals_valIKiEENS0_16_Iter_equals_valIT_EERS4_, symObjAddr: 0xA2A8, symBinAddr: 0x10000F88C, symSize: 0x24 }
  - { offsetInCU: 0x2ADC1, offset: 0x2ADC1, size: 0x8, addend: 0x0, symName: __ZN9__gnu_cxx17__normal_iteratorIPiSt6vectorIiSaIiEEEC1ERKS1_, symObjAddr: 0xA280, symBinAddr: 0x10000F864, symSize: 0x28 }
  - { offsetInCU: 0x2ADB6, offset: 0x2ADB6, size: 0x8, addend: 0x0, symName: __ZNSt6vectorIS_IiSaIiEESaIS1_EE15_M_erase_at_endEPS1_, symObjAddr: 0xA1EC, symBinAddr: 0x10000F7D0, symSize: 0x94 }
  - { offsetInCU: 0x2AE47, offset: 0x2AE47, size: 0x8, addend: 0x0, symName: __ZNSt6vectorIiSaIiEE4swapERS1_, symObjAddr: 0xA128, symBinAddr: 0x10000F70C, symSize: 0xC4 }
  - { offsetInCU: 0x2AF05, offset: 0x2AF05, size: 0x8, addend: 0x0, symName: __ZNSt6vectorIiSaIiEE18_M_fill_initializeEmRKi, symObjAddr: 0xA0D0, symBinAddr: 0x10000F6B4, symSize: 0x58 }
  - { offsetInCU: 0x2AFA2, offset: 0x2AFA2, size: 0x8, addend: 0x0, symName: __ZNSt12_Vector_baseIiSaIiEEC2EmRKS0_, symObjAddr: 0xA07C, symBinAddr: 0x10000F660, symSize: 0x54 }
  - { offsetInCU: 0x2AFB5, offset: 0x2AFB5, size: 0x8, addend: 0x0, symName: __ZNSt6vectorIiSaIiEE17_S_check_init_lenEmRKS0_, symObjAddr: 0x9FF8, symBinAddr: 0x10000F5DC, symSize: 0x84 }
  - { offsetInCU: 0x2B068, offset: 0x2B068, size: 0x8, addend: 0x0, symName: __ZNSt6vectorIS_IiSaIiEESaIS1_EE19_M_range_initializeIPKS1_EEvT_S7_St20forward_iterator_tag, symObjAddr: 0x9EFC, symBinAddr: 0x10000F4E0, symSize: 0xFC }
  - { offsetInCU: 0x2B180, offset: 0x2B180, size: 0x8, addend: 0x0, symName: __ZNKSt16initializer_listISt6vectorIiSaIiEEE3endEv, symObjAddr: 0x9EB4, symBinAddr: 0x10000F498, symSize: 0x48 }
  - { offsetInCU: 0x2B1A8, offset: 0x2B1A8, size: 0x8, addend: 0x0, symName: __ZNKSt16initializer_listISt6vectorIiSaIiEEE5beginEv, symObjAddr: 0x9E9C, symBinAddr: 0x10000F480, symSize: 0x18 }
  - { offsetInCU: 0x2B228, offset: 0x2B228, size: 0x8, addend: 0x0, symName: __ZNSt12_Vector_baseISt6vectorIiSaIiEESaIS2_EEC2ERKS3_, symObjAddr: 0x9E74, symBinAddr: 0x10000F458, symSize: 0x28 }
  - { offsetInCU: 0x2B239, offset: 0x2B239, size: 0x8, addend: 0x0, symName: __ZNSt6vectorIiSaIiEE19_M_range_initializeIPKiEEvT_S5_St20forward_iterator_tag, symObjAddr: 0x9D90, symBinAddr: 0x10000F374, symSize: 0xE4 }
  - { offsetInCU: 0x2B351, offset: 0x2B351, size: 0x8, addend: 0x0, symName: __ZNKSt16initializer_listIiE3endEv, symObjAddr: 0x9D58, symBinAddr: 0x10000F33C, symSize: 0x38 }
  - { offsetInCU: 0x2B379, offset: 0x2B379, size: 0x8, addend: 0x0, symName: __ZNKSt16initializer_listIiE5beginEv, symObjAddr: 0x9D40, symBinAddr: 0x10000F324, symSize: 0x18 }
  - { offsetInCU: 0x2B3E7, offset: 0x2B3E7, size: 0x8, addend: 0x0, symName: __ZNSt12_Vector_baseIiSaIiEEC2ERKS0_, symObjAddr: 0x9D18, symBinAddr: 0x10000F2FC, symSize: 0x28 }
  - { offsetInCU: 0x2B40A, offset: 0x2B40A, size: 0x8, addend: 0x0, symName: __ZNSt12_Vector_baseISt6vectorIiSaIiEESaIS2_EE13_M_deallocateEPS2_m, symObjAddr: 0x9CC0, symBinAddr: 0x10000F2A4, symSize: 0x58 }
  - { offsetInCU: 0x2B4D3, offset: 0x2B4D3, size: 0x8, addend: 0x0, symName: __ZNSt15__new_allocatorISt6vectorIiSaIiEEED2Ev, symObjAddr: 0x9CAC, symBinAddr: 0x10000F290, symSize: 0x14 }
  - { offsetInCU: 0x2B528, offset: 0x2B528, size: 0x8, addend: 0x0, symName: __ZNSt12_Vector_baseISt6vectorIiSaIiEESaIS2_EE17_Vector_impl_dataC1Ev, symObjAddr: 0x9C80, symBinAddr: 0x10000F264, symSize: 0x2C }
  - { offsetInCU: 0x2B552, offset: 0x2B552, size: 0x8, addend: 0x0, symName: __ZNSt12_Vector_baseISt6vectorIiSaIiEESaIS2_EE17_Vector_impl_dataC2Ev, symObjAddr: 0x9C54, symBinAddr: 0x10000F238, symSize: 0x2C }
  - { offsetInCU: 0x2B56E, offset: 0x2B56E, size: 0x8, addend: 0x0, symName: __ZSt22__uninitialized_copy_aIN9__gnu_cxx17__normal_iteratorIPKSt6vectorIiSaIiEES2_IS4_SaIS4_EEEEPS4_S4_ET0_T_SC_SB_RSaIT1_E, symObjAddr: 0x9C24, symBinAddr: 0x10000F208, symSize: 0x30 }
  - { offsetInCU: 0x2B5DD, offset: 0x2B5DD, size: 0x8, addend: 0x0, symName: __ZNSt12_Vector_baseISt6vectorIiSaIiEESaIS2_EE19_M_get_Tp_allocatorEv, symObjAddr: 0x9C10, symBinAddr: 0x10000F1F4, symSize: 0x14 }
  - { offsetInCU: 0x2B605, offset: 0x2B605, size: 0x8, addend: 0x0, symName: __ZNKSt6vectorIS_IiSaIiEESaIS1_EE3endEv, symObjAddr: 0x9BE8, symBinAddr: 0x10000F1CC, symSize: 0x28 }
  - { offsetInCU: 0x2B62D, offset: 0x2B62D, size: 0x8, addend: 0x0, symName: __ZNKSt6vectorIS_IiSaIiEESaIS1_EE5beginEv, symObjAddr: 0x9BC4, symBinAddr: 0x10000F1A8, symSize: 0x24 }
  - { offsetInCU: 0x2B6BC, offset: 0x2B6BC, size: 0x8, addend: 0x0, symName: __ZNSt12_Vector_baseISt6vectorIiSaIiEESaIS2_EEC2EmRKS3_, symObjAddr: 0x9B70, symBinAddr: 0x10000F154, symSize: 0x54 }
  - { offsetInCU: 0x2B6D6, offset: 0x2B6D6, size: 0x8, addend: 0x0, symName: __ZNKSt12_Vector_baseISt6vectorIiSaIiEESaIS2_EE19_M_get_Tp_allocatorEv, symObjAddr: 0x9B5C, symBinAddr: 0x10000F140, symSize: 0x14 }
  - { offsetInCU: 0x2B755, offset: 0x2B755, size: 0x8, addend: 0x0, symName: __ZNSt12_Vector_baseIiSaIiEE17_Vector_impl_dataC2EOS2_, symObjAddr: 0x9AEC, symBinAddr: 0x10000F0D0, symSize: 0x70 }
  - { offsetInCU: 0x2B77B, offset: 0x2B77B, size: 0x8, addend: 0x0, symName: __ZSt4moveIRNSt12_Vector_baseIiSaIiEE12_Vector_implEEONSt16remove_referenceIT_E4typeEOS6_, symObjAddr: 0x9AD8, symBinAddr: 0x10000F0BC, symSize: 0x14 }
  - { offsetInCU: 0x2B7AF, offset: 0x2B7AF, size: 0x8, addend: 0x0, symName: __ZNSt6vectorIiSaIiEE17_M_realloc_insertIJRKiEEEvN9__gnu_cxx17__normal_iteratorIPiS1_EEDpOT_, symObjAddr: 0x9918, symBinAddr: 0x10000EEFC, symSize: 0x1C0 }
  - { offsetInCU: 0x2B953, offset: 0x2B953, size: 0x8, addend: 0x0, symName: __ZNSt12_Vector_baseIiSaIiEE19_M_get_Tp_allocatorEv, symObjAddr: 0x9904, symBinAddr: 0x10000EEE8, symSize: 0x14 }
  - { offsetInCU: 0x2B97B, offset: 0x2B97B, size: 0x8, addend: 0x0, symName: __ZNSt12_Vector_baseIiSaIiEE13_M_deallocateEPim, symObjAddr: 0x98AC, symBinAddr: 0x10000EE90, symSize: 0x58 }
  - { offsetInCU: 0x2BA34, offset: 0x2BA34, size: 0x8, addend: 0x0, symName: __ZNSt15__new_allocatorIiED2Ev, symObjAddr: 0x9898, symBinAddr: 0x10000EE7C, symSize: 0x14 }
  - { offsetInCU: 0x2BA87, offset: 0x2BA87, size: 0x8, addend: 0x0, symName: __ZNSt12_Vector_baseIiSaIiEE17_Vector_impl_dataC1Ev, symObjAddr: 0x986C, symBinAddr: 0x10000EE50, symSize: 0x2C }
  - { offsetInCU: 0x2BAB1, offset: 0x2BAB1, size: 0x8, addend: 0x0, symName: __ZNSt12_Vector_baseIiSaIiEE17_Vector_impl_dataC2Ev, symObjAddr: 0x9840, symBinAddr: 0x10000EE24, symSize: 0x2C }
  - { offsetInCU: 0x2BAA8, offset: 0x2BAA8, size: 0x8, addend: 0x0, symName: __ZNSt12_Vector_baseISt6vectorIdSaIdEESaIS2_EE13_M_deallocateEPS2_m, symObjAddr: 0x97E8, symBinAddr: 0x10000EDCC, symSize: 0x58 }
  - { offsetInCU: 0x2BB47, offset: 0x2BB47, size: 0x8, addend: 0x0, symName: __ZNSt6vectorIS_IdSaIdEESaIS1_EE18_M_fill_initializeEmRKS1_, symObjAddr: 0x9790, symBinAddr: 0x10000ED74, symSize: 0x58 }
  - { offsetInCU: 0x2BB8B, offset: 0x2BB8B, size: 0x8, addend: 0x0, symName: __ZNSt6vectorIS_IdSaIdEESaIS1_EE17_S_check_init_lenEmRKS2_, symObjAddr: 0x970C, symBinAddr: 0x10000ECF0, symSize: 0x84 }
  - { offsetInCU: 0x2BC89, offset: 0x2BC89, size: 0x8, addend: 0x0, symName: __ZNSt15__new_allocatorISt6vectorIdSaIdEEED2Ev, symObjAddr: 0x96F8, symBinAddr: 0x10000ECDC, symSize: 0x14 }
  - { offsetInCU: 0x2BCD4, offset: 0x2BCD4, size: 0x8, addend: 0x0, symName: __ZNSt12_Vector_baseIdSaIdEE19_M_get_Tp_allocatorEv, symObjAddr: 0x96E4, symBinAddr: 0x10000ECC8, symSize: 0x14 }
  - { offsetInCU: 0x2BCFC, offset: 0x2BCFC, size: 0x8, addend: 0x0, symName: __ZNSt6vectorIdSaIdEE18_M_fill_initializeEmRKd, symObjAddr: 0x968C, symBinAddr: 0x10000EC70, symSize: 0x58 }
  - { offsetInCU: 0x2BD99, offset: 0x2BD99, size: 0x8, addend: 0x0, symName: __ZNSt12_Vector_baseIdSaIdEEC2EmRKS0_, symObjAddr: 0x9638, symBinAddr: 0x10000EC1C, symSize: 0x54 }
  - { offsetInCU: 0x2BDAC, offset: 0x2BDAC, size: 0x8, addend: 0x0, symName: __ZNSt6vectorIdSaIdEE17_S_check_init_lenEmRKS0_, symObjAddr: 0x95B4, symBinAddr: 0x10000EB98, symSize: 0x84 }
  - { offsetInCU: 0x2BE9A, offset: 0x2BE9A, size: 0x8, addend: 0x0, symName: __ZNSt15__new_allocatorIdED2Ev, symObjAddr: 0x95A0, symBinAddr: 0x10000EB84, symSize: 0x14 }
  - { offsetInCU: 0x2BEF1, offset: 0x2BEF1, size: 0x8, addend: 0x0, symName: __ZSt22__uninitialized_copy_aIN9__gnu_cxx17__normal_iteratorIPKSt6vectorIdSaIdEES2_IS4_SaIS4_EEEEPS4_S4_ET0_T_SC_SB_RSaIT1_E, symObjAddr: 0x9570, symBinAddr: 0x10000EB54, symSize: 0x30 }
  - { offsetInCU: 0x2BF60, offset: 0x2BF60, size: 0x8, addend: 0x0, symName: __ZNSt12_Vector_baseISt6vectorIdSaIdEESaIS2_EE19_M_get_Tp_allocatorEv, symObjAddr: 0x955C, symBinAddr: 0x10000EB40, symSize: 0x14 }
  - { offsetInCU: 0x2BF88, offset: 0x2BF88, size: 0x8, addend: 0x0, symName: __ZNKSt6vectorIS_IdSaIdEESaIS1_EE3endEv, symObjAddr: 0x9534, symBinAddr: 0x10000EB18, symSize: 0x28 }
  - { offsetInCU: 0x2BFB0, offset: 0x2BFB0, size: 0x8, addend: 0x0, symName: __ZNKSt6vectorIS_IdSaIdEESaIS1_EE5beginEv, symObjAddr: 0x9510, symBinAddr: 0x10000EAF4, symSize: 0x24 }
  - { offsetInCU: 0x2C03F, offset: 0x2C03F, size: 0x8, addend: 0x0, symName: __ZNSt12_Vector_baseISt6vectorIdSaIdEESaIS2_EEC2EmRKS3_, symObjAddr: 0x94BC, symBinAddr: 0x10000EAA0, symSize: 0x54 }
  - { offsetInCU: 0x2C059, offset: 0x2C059, size: 0x8, addend: 0x0, symName: __ZNKSt12_Vector_baseISt6vectorIdSaIdEESaIS2_EE19_M_get_Tp_allocatorEv, symObjAddr: 0x94A8, symBinAddr: 0x10000EA8C, symSize: 0x14 }
  - { offsetInCU: 0x2C081, offset: 0x2C081, size: 0x8, addend: 0x0, symName: __ZNSt6vectorIdSaIdEE4swapERS1_, symObjAddr: 0x93E4, symBinAddr: 0x10000E9C8, symSize: 0xC4 }
  - { offsetInCU: 0x2C141, offset: 0x2C141, size: 0x8, addend: 0x0, symName: __ZSt4moveIRNSt7__cxx1112basic_stringIcSt11char_traitsIcESaIcEEEEONSt16remove_referenceIT_E4typeEOS8_, symObjAddr: 0x93D0, symBinAddr: 0x10000E9B4, symSize: 0x14 }
  - { offsetInCU: 0x2C175, offset: 0x2C175, size: 0x8, addend: 0x0, symName: __ZNSt7__cxx1112basic_stringIcSt11char_traitsIcESaIcEE12_M_constructIPKcEEvT_S8_St20forward_iterator_tag, symObjAddr: 0x92F0, symBinAddr: 0x10000E8D4, symSize: 0xE0 }
  - { offsetInCU: 0x2C2E9, offset: 0x2C2E9, size: 0x8, addend: 0x0, symName: __ZZNSt7__cxx1112basic_stringIcSt11char_traitsIcESaIcEE12_M_constructIPKcEEvT_S8_St20forward_iterator_tagEN6_GuardC1EPS4_, symObjAddr: 0x9298, symBinAddr: 0x10000E87C, symSize: 0x24 }
  - { offsetInCU: 0x2C31A, offset: 0x2C31A, size: 0x8, addend: 0x0, symName: __ZZNSt7__cxx1112basic_stringIcSt11char_traitsIcESaIcEE12_M_constructIPKcEEvT_S8_St20forward_iterator_tagEN6_GuardD1Ev, symObjAddr: 0x92BC, symBinAddr: 0x10000E8A0, symSize: 0x34 }
  - { offsetInCU: 0x2C3D1, offset: 0x2C3D1, size: 0x8, addend: 0x0, symName: __ZNSt15__new_allocatorIcED2Ev, symObjAddr: 0x9284, symBinAddr: 0x10000E868, symSize: 0x14 }
  - { offsetInCU: 0x2C3ED, offset: 0x2C3ED, size: 0x8, addend: 0x0, symName: __ZN9__gnu_cxx11char_traitsIcE2eqERKcS3_, symObjAddr: 0x9254, symBinAddr: 0x10000E838, symSize: 0x30 }
  - { offsetInCU: 0x2C4A0, offset: 0x2C4A0, size: 0x8, addend: 0x0, symName: __Z12print_matrixIiEvRKSt6vectorIS0_IT_SaIS1_EESaIS3_EENSt7__cxx1112basic_stringIcSt11char_traitsIcESaIcEEE, symObjAddr: 0x9118, symBinAddr: 0x10000E6FC, symSize: 0x13C }
  - { offsetInCU: 0x2C507, offset: 0x2C507, size: 0x8, addend: 0x0, symName: __Z12Print_MatrixIiEvRKSt6vectorIS0_IT_SaIS1_EESaIS3_EE, symObjAddr: 0x900C, symBinAddr: 0x10000E5F0, symSize: 0x10C }
  - { offsetInCU: 0x2C59A, offset: 0x2C59A, size: 0x8, addend: 0x0, symName: __ZNSt6vectorISt7complexIdESaIS1_EEC1ERKS3_, symObjAddr: 0x8EF8, symBinAddr: 0x10000E4DC, symSize: 0x114 }
  - { offsetInCU: 0x2C686, offset: 0x2C686, size: 0x8, addend: 0x0, symName: __ZNSt6vectorIS_ISt7complexIdESaIS1_EESaIS3_EEaSERKS5_, symObjAddr: 0x8B60, symBinAddr: 0x10000E144, symSize: 0x398 }
  - { offsetInCU: 0x2C802, offset: 0x2C802, size: 0x8, addend: 0x0, symName: __ZNSt6vectorIS_IS_IiSaIiEESaIS1_EESaIS3_EEaSERKS5_, symObjAddr: 0x87C8, symBinAddr: 0x10000DDAC, symSize: 0x398 }
  - { offsetInCU: 0x2C9C2, offset: 0x2C9C2, size: 0x8, addend: 0x0, symName: __Z9TransposeIdESt6vectorIS0_IT_SaIS1_EESaIS3_EES5_, symObjAddr: 0x8664, symBinAddr: 0x10000DC48, symSize: 0x164 }
  - { offsetInCU: 0x2CACD, offset: 0x2CACD, size: 0x8, addend: 0x0, symName: __ZNSt6vectorISt7complexIdESaIS1_EEaSEOS3_, symObjAddr: 0x8620, symBinAddr: 0x10000DC04, symSize: 0x44 }
  - { offsetInCU: 0x2CB16, offset: 0x2CB16, size: 0x8, addend: 0x0, symName: __ZNSt6vectorIS_IdSaIdEESaIS1_EEaSEOS3_, symObjAddr: 0x85DC, symBinAddr: 0x10000DBC0, symSize: 0x44 }
  - { offsetInCU: 0x2CB5F, offset: 0x2CB5F, size: 0x8, addend: 0x0, symName: __ZNSt6vectorIS_IS_IiSaIiEESaIS1_EESaIS3_EEaSEOS5_, symObjAddr: 0x8598, symBinAddr: 0x10000DB7C, symSize: 0x44 }
  - { offsetInCU: 0x2CBA8, offset: 0x2CBA8, size: 0x8, addend: 0x0, symName: __ZNSt6vectorIS_ISt7complexIdESaIS1_EESaIS3_EEaSEOS5_, symObjAddr: 0x8554, symBinAddr: 0x10000DB38, symSize: 0x44 }
  - { offsetInCU: 0x2CC78, offset: 0x2CC78, size: 0x8, addend: 0x0, symName: __ZNSt7__cxx1112basic_stringIcSt11char_traitsIcESaIcEEC1IS3_EEPKcRKS3_, symObjAddr: 0x84B8, symBinAddr: 0x10000DA9C, symSize: 0x9C }
  - { offsetInCU: 0x2CC9B, offset: 0x2CC9B, size: 0x8, addend: 0x0, symName: __ZNSt6vectorIS_IiSaIiEESaIS1_EEaSEOS3_, symObjAddr: 0x8474, symBinAddr: 0x10000DA58, symSize: 0x44 }
  - { offsetInCU: 0x2CCE4, offset: 0x2CCE4, size: 0x8, addend: 0x0, symName: __ZNSt6vectorIS_IiSaIiEESaIS1_EEaSERKS3_, symObjAddr: 0x80DC, symBinAddr: 0x10000D6C0, symSize: 0x398 }
  - { offsetInCU: 0x2CE5C, offset: 0x2CE5C, size: 0x8, addend: 0x0, symName: __ZSt6all_ofIN9__gnu_cxx17__normal_iteratorIPiSt6vectorIiSaIiEEEEZ19remove_wrong_cyclesRS3_IS5_SaIS5_EERKS8_EUliE_EbT_SD_T0_, symObjAddr: 0x80A0, symBinAddr: 0x10000D684, symSize: 0x3C }
  - { offsetInCU: 0x2CEBA, offset: 0x2CEBA, size: 0x8, addend: 0x0, symName: __ZNK9__gnu_cxx17__normal_iteratorIPSt6vectorIiSaIiEES1_IS3_SaIS3_EEEdeEv, symObjAddr: 0x8088, symBinAddr: 0x10000D66C, symSize: 0x18 }
  - { offsetInCU: 0x2CEE2, offset: 0x2CEE2, size: 0x8, addend: 0x0, symName: __ZN9__gnu_cxx17__normal_iteratorIPSt6vectorIiSaIiEES1_IS3_SaIS3_EEEppEv, symObjAddr: 0x8060, symBinAddr: 0x10000D644, symSize: 0x28 }
  - { offsetInCU: 0x2CF06, offset: 0x2CF06, size: 0x8, addend: 0x0, symName: __ZN9__gnu_cxxneIPSt6vectorIiSaIiEES1_IS3_SaIS3_EEEEbRKNS_17__normal_iteratorIT_T0_EESC_, symObjAddr: 0x801C, symBinAddr: 0x10000D600, symSize: 0x44 }
  - { offsetInCU: 0x2CF54, offset: 0x2CF54, size: 0x8, addend: 0x0, symName: __ZNKSt6vectorIS_IiSaIiEESaIS1_EE5emptyEv, symObjAddr: 0x7FE4, symBinAddr: 0x10000D5C8, symSize: 0x38 }
  - { offsetInCU: 0x2CFE8, offset: 0x2CFE8, size: 0x8, addend: 0x0, symName: __ZNSt6vectorIS_IiSaIiEESaIS1_EEC1EmRKS1_RKS2_, symObjAddr: 0x7F74, symBinAddr: 0x10000D558, symSize: 0x70 }
  - { offsetInCU: 0x2D04D, offset: 0x2D04D, size: 0x8, addend: 0x0, symName: __ZNSt6vectorIiSaIiEEC1EmRKS0_, symObjAddr: 0x7F0C, symBinAddr: 0x10000D4F0, symSize: 0x68 }
  - { offsetInCU: 0x2D06B, offset: 0x2D06B, size: 0x8, addend: 0x0, symName: __ZNKSt6vectorIiSaIiEEixEm, symObjAddr: 0x7EE4, symBinAddr: 0x10000D4C8, symSize: 0x28 }
  - { offsetInCU: 0x2D0A3, offset: 0x2D0A3, size: 0x8, addend: 0x0, symName: __ZNSt6vectorIS_IS_IiSaIiEESaIS1_EESaIS3_EE9push_backEOS3_, symObjAddr: 0x7EB4, symBinAddr: 0x10000D498, symSize: 0x30 }
  - { offsetInCU: 0x2D0DB, offset: 0x2D0DB, size: 0x8, addend: 0x0, symName: __ZNSt6vectorIS_ISt7complexIdESaIS1_EESaIS3_EE9push_backEOS3_, symObjAddr: 0x7E84, symBinAddr: 0x10000D468, symSize: 0x30 }
  - { offsetInCU: 0x2D187, offset: 0x2D187, size: 0x8, addend: 0x0, symName: __ZNSt6vectorISt7complexIdESaIS1_EEC1ESt16initializer_listIS1_ERKS2_, symObjAddr: 0x7E14, symBinAddr: 0x10000D3F8, symSize: 0x70 }
  - { offsetInCU: 0x2D193, offset: 0x2D193, size: 0x8, addend: 0x0, symName: __ZNSt6vectorIS_IS_IiSaIiEESaIS1_EESaIS3_EEixEm, symObjAddr: 0x7DE0, symBinAddr: 0x10000D3C4, symSize: 0x34 }
  - { offsetInCU: 0x2D1CB, offset: 0x2D1CB, size: 0x8, addend: 0x0, symName: __ZNSt6vectorISt7complexIdESaIS1_EE9push_backERKS1_, symObjAddr: 0x7D04, symBinAddr: 0x10000D2E8, symSize: 0xDC }
  - { offsetInCU: 0x2D26F, offset: 0x2D26F, size: 0x8, addend: 0x0, symName: __ZNSt7complexIdEpLIdEERS0_RKS_IT_E, symObjAddr: 0x7CA4, symBinAddr: 0x10000D288, symSize: 0x60 }
  - { offsetInCU: 0x2D2B0, offset: 0x2D2B0, size: 0x8, addend: 0x0, symName: __ZNSt6vectorIdSaIdEEaSEOS1_, symObjAddr: 0x7C60, symBinAddr: 0x10000D244, symSize: 0x44 }
  - { offsetInCU: 0x2D2F5, offset: 0x2D2F5, size: 0x8, addend: 0x0, symName: __ZSt3powIdmEN9__gnu_cxx11__promote_2IDTplcvNS1_IT_XsrSt12__is_integerIS2_E7__valueEE6__typeELi0EcvNS1_IT0_XsrS3_IS7_E7__valueEE6__typeELi0EEXsrS3_ISB_E7__valueEE6__typeES2_S7_, symObjAddr: 0x7C34, symBinAddr: 0x10000D218, symSize: 0x2C }
  - { offsetInCU: 0x2D356, offset: 0x2D356, size: 0x8, addend: 0x0, symName: __ZNSt6vectorINSt7__cxx1112basic_stringIcSt11char_traitsIcESaIcEEESaIS5_EEixEm, symObjAddr: 0x7C0C, symBinAddr: 0x10000D1F0, symSize: 0x28 }
  - { offsetInCU: 0x2D38E, offset: 0x2D38E, size: 0x8, addend: 0x0, symName: __ZNKSt6vectorINSt7__cxx1112basic_stringIcSt11char_traitsIcESaIcEEESaIS5_EE4sizeEv, symObjAddr: 0x7BE4, symBinAddr: 0x10000D1C8, symSize: 0x28 }
  - { offsetInCU: 0x2D421, offset: 0x2D421, size: 0x8, addend: 0x0, symName: __ZNSt6vectorINSt7__cxx1112basic_stringIcSt11char_traitsIcESaIcEEESaIS5_EED1Ev, symObjAddr: 0x7B88, symBinAddr: 0x10000D16C, symSize: 0x5C }
  - { offsetInCU: 0x2D4F2, offset: 0x2D4F2, size: 0x8, addend: 0x0, symName: __ZNSt6vectorINSt7__cxx1112basic_stringIcSt11char_traitsIcESaIcEEESaIS5_EEC1ISt16istream_iteratorIS5_cS3_lEvEET_SB_RKS6_, symObjAddr: 0x7ACC, symBinAddr: 0x10000D0B0, symSize: 0xBC }
  - { offsetInCU: 0x2D58E, offset: 0x2D58E, size: 0x8, addend: 0x0, symName: __ZNSt16istream_iteratorINSt7__cxx1112basic_stringIcSt11char_traitsIcESaIcEEEcS3_lEC1Ev, symObjAddr: 0x7A98, symBinAddr: 0x10000D07C, symSize: 0x34 }
  - { offsetInCU: 0x2D5DB, offset: 0x2D5DB, size: 0x8, addend: 0x0, symName: __ZNSt16istream_iteratorINSt7__cxx1112basic_stringIcSt11char_traitsIcESaIcEEEcS3_lEC1ERSi, symObjAddr: 0x7A28, symBinAddr: 0x10000D00C, symSize: 0x70 }
  - { offsetInCU: 0x2D62B, offset: 0x2D62B, size: 0x8, addend: 0x0, symName: __ZNSt12_Vector_baseISt6vectorIiSaIiEESaIS2_EE12_Vector_implC1EOS5_, symObjAddr: 0x79BC, symBinAddr: 0x10000CFA0, symSize: 0x6C }
  - { offsetInCU: 0x2D6D3, offset: 0x2D6D3, size: 0x8, addend: 0x0, symName: __ZNSt12_Vector_baseISt7complexIdESaIS1_EE12_Vector_implC1EOS4_, symObjAddr: 0x7950, symBinAddr: 0x10000CF34, symSize: 0x6C }
  - { offsetInCU: 0x2D76B, offset: 0x2D76B, size: 0x8, addend: 0x0, symName: __ZNSt6vectorIS_IS_IiSaIiEESaIS1_EESaIS3_EED1Ev, symObjAddr: 0x78F4, symBinAddr: 0x10000CED8, symSize: 0x5C }
  - { offsetInCU: 0x2D7F7, offset: 0x2D7F7, size: 0x8, addend: 0x0, symName: __ZNSt12_Vector_baseISt6vectorIS0_IiSaIiEESaIS2_EESaIS4_EED2Ev, symObjAddr: 0x7898, symBinAddr: 0x10000CE7C, symSize: 0x5C }
  - { offsetInCU: 0x2D860, offset: 0x2D860, size: 0x8, addend: 0x0, symName: __ZNSt12_Vector_baseISt6vectorIS0_IiSaIiEESaIS2_EESaIS4_EE12_Vector_implC1Ev, symObjAddr: 0x7860, symBinAddr: 0x10000CE44, symSize: 0x38 }
  - { offsetInCU: 0x2D884, offset: 0x2D884, size: 0x8, addend: 0x0, symName: __ZNSt6vectorIS_ISt7complexIdESaIS1_EESaIS3_EE9push_backERKS3_, symObjAddr: 0x7758, symBinAddr: 0x10000CD3C, symSize: 0x108 }
  - { offsetInCU: 0x2D920, offset: 0x2D920, size: 0x8, addend: 0x0, symName: __ZNSt6vectorISt7complexIdESaIS1_EE9push_backEOS1_, symObjAddr: 0x7728, symBinAddr: 0x10000CD0C, symSize: 0x30 }
  - { offsetInCU: 0x2D954, offset: 0x2D954, size: 0x8, addend: 0x0, symName: __ZStmlIdESt7complexIT_ERKS2_RKS1_, symObjAddr: 0x76D8, symBinAddr: 0x10000CCBC, symSize: 0x50 }
  - { offsetInCU: 0x2D9A5, offset: 0x2D9A5, size: 0x8, addend: 0x0, symName: __ZSt4conjIdESt7complexIT_ERKS2_, symObjAddr: 0x7680, symBinAddr: 0x10000CC64, symSize: 0x58 }
  - { offsetInCU: 0x2D9DA, offset: 0x2D9DA, size: 0x8, addend: 0x0, symName: __ZNSt6vectorISt7complexIdESaIS1_EEixEm, symObjAddr: 0x7658, symBinAddr: 0x10000CC3C, symSize: 0x28 }
  - { offsetInCU: 0x2DA12, offset: 0x2DA12, size: 0x8, addend: 0x0, symName: __ZNKSt6vectorISt7complexIdESaIS1_EE4sizeEv, symObjAddr: 0x7630, symBinAddr: 0x10000CC14, symSize: 0x28 }
  - { offsetInCU: 0x2DA3A, offset: 0x2DA3A, size: 0x8, addend: 0x0, symName: __ZNSt6vectorIS_ISt7complexIdESaIS1_EESaIS3_EEixEm, symObjAddr: 0x75FC, symBinAddr: 0x10000CBE0, symSize: 0x34 }
  - { offsetInCU: 0x2DAB6, offset: 0x2DAB6, size: 0x8, addend: 0x0, symName: __ZNSt6vectorISt7complexIdESaIS1_EED1Ev, symObjAddr: 0x75A0, symBinAddr: 0x10000CB84, symSize: 0x5C }
  - { offsetInCU: 0x2DB3A, offset: 0x2DB3A, size: 0x8, addend: 0x0, symName: __ZNSt12_Vector_baseISt7complexIdESaIS1_EED2Ev, symObjAddr: 0x7550, symBinAddr: 0x10000CB34, symSize: 0x50 }
  - { offsetInCU: 0x2DBA3, offset: 0x2DBA3, size: 0x8, addend: 0x0, symName: __ZNSt12_Vector_baseISt7complexIdESaIS1_EE12_Vector_implC1Ev, symObjAddr: 0x7518, symBinAddr: 0x10000CAFC, symSize: 0x38 }
  - { offsetInCU: 0x2DBD3, offset: 0x2DBD3, size: 0x8, addend: 0x0, symName: __ZSt3powIdiEN9__gnu_cxx11__promote_2IDTplcvNS1_IT_XsrSt12__is_integerIS2_E7__valueEE6__typeELi0EcvNS1_IT0_XsrS3_IS7_E7__valueEE6__typeELi0EEXsrS3_ISB_E7__valueEE6__typeES2_S7_, symObjAddr: 0x74EC, symBinAddr: 0x10000CAD0, symSize: 0x2C }
  - { offsetInCU: 0x2DCC0, offset: 0x2DCC0, size: 0x8, addend: 0x0, symName: __ZNSt6vectorIdSaIdEEC1IN9__gnu_cxx17__normal_iteratorIPdS1_EEvEET_S7_RKS0_, symObjAddr: 0x7488, symBinAddr: 0x10000CA6C, symSize: 0x64 }
  - { offsetInCU: 0x2DCE4, offset: 0x2DCE4, size: 0x8, addend: 0x0, symName: __ZNSt6vectorIdSaIdEE3endEv, symObjAddr: 0x7460, symBinAddr: 0x10000CA44, symSize: 0x28 }
  - { offsetInCU: 0x2DD0C, offset: 0x2DD0C, size: 0x8, addend: 0x0, symName: __ZNSt6vectorIdSaIdEE5beginEv, symObjAddr: 0x743C, symBinAddr: 0x10000CA20, symSize: 0x24 }
  - { offsetInCU: 0x2DD83, offset: 0x2DD83, size: 0x8, addend: 0x0, symName: __ZNSt6vectorIS_ISt7complexIdESaIS1_EESaIS3_EED1Ev, symObjAddr: 0x73E0, symBinAddr: 0x10000C9C4, symSize: 0x5C }
  - { offsetInCU: 0x2DE0E, offset: 0x2DE0E, size: 0x8, addend: 0x0, symName: __ZNSt12_Vector_baseISt6vectorISt7complexIdESaIS2_EESaIS4_EED2Ev, symObjAddr: 0x7384, symBinAddr: 0x10000C968, symSize: 0x5C }
  - { offsetInCU: 0x2DE77, offset: 0x2DE77, size: 0x8, addend: 0x0, symName: __ZNSt12_Vector_baseISt6vectorISt7complexIdESaIS2_EESaIS4_EE12_Vector_implC1Ev, symObjAddr: 0x734C, symBinAddr: 0x10000C930, symSize: 0x38 }
  - { offsetInCU: 0x2DE99, offset: 0x2DE99, size: 0x8, addend: 0x0, symName: __ZNSt6vectorIdSaIdEE9push_backEOd, symObjAddr: 0x731C, symBinAddr: 0x10000C900, symSize: 0x30 }
  - { offsetInCU: 0x2DF13, offset: 0x2DF13, size: 0x8, addend: 0x0, symName: __ZNSt12_Vector_baseIdSaIdEE12_Vector_implC1Ev, symObjAddr: 0x72E4, symBinAddr: 0x10000C8C8, symSize: 0x38 }
  - { offsetInCU: 0x2DF51, offset: 0x2DF51, size: 0x8, addend: 0x0, symName: __ZSt9make_pairIbiESt4pairINSt25__strip_reference_wrapperINSt5decayIT_E4typeEE6__typeENS1_INS2_IT0_E4typeEE6__typeEEOS3_OS8_, symObjAddr: 0x7298, symBinAddr: 0x10000C87C, symSize: 0x4C }
  - { offsetInCU: 0x2DF9B, offset: 0x2DF9B, size: 0x8, addend: 0x0, symName: __ZSt9make_pairIbRiESt4pairINSt25__strip_reference_wrapperINSt5decayIT_E4typeEE6__typeENS2_INS3_IT0_E4typeEE6__typeEEOS4_OS9_, symObjAddr: 0x724C, symBinAddr: 0x10000C830, symSize: 0x4C }
  - { offsetInCU: 0x2E026, offset: 0x2E026, size: 0x8, addend: 0x0, symName: __ZNSt12_Vector_baseIdSaIdEED2Ev, symObjAddr: 0x71FC, symBinAddr: 0x10000C7E0, symSize: 0x50 }
  - { offsetInCU: 0x2E082, offset: 0x2E082, size: 0x8, addend: 0x0, symName: __ZNSt12_Vector_baseIdSaIdEE12_Vector_implC1EOS2_, symObjAddr: 0x7190, symBinAddr: 0x10000C774, symSize: 0x6C }
  - { offsetInCU: 0x2E0DC, offset: 0x2E0DC, size: 0x8, addend: 0x0, symName: __ZNSt6vectorIiSaIiEE5eraseEN9__gnu_cxx17__normal_iteratorIPKiS1_EE, symObjAddr: 0x713C, symBinAddr: 0x10000C720, symSize: 0x54 }
  - { offsetInCU: 0x2E18C, offset: 0x2E18C, size: 0x8, addend: 0x0, symName: __ZN9__gnu_cxx17__normal_iteratorIPKiSt6vectorIiSaIiEEEC1IPivEERKNS0_IT_S5_EE, symObjAddr: 0x710C, symBinAddr: 0x10000C6F0, symSize: 0x30 }
  - { offsetInCU: 0x2E17B, offset: 0x2E17B, size: 0x8, addend: 0x0, symName: __ZNK9__gnu_cxx17__normal_iteratorIPiSt6vectorIiSaIiEEEplEl, symObjAddr: 0x70CC, symBinAddr: 0x10000C6B0, symSize: 0x40 }
  - { offsetInCU: 0x2E1AF, offset: 0x2E1AF, size: 0x8, addend: 0x0, symName: __ZSt4sortIN9__gnu_cxx17__normal_iteratorIPiSt6vectorIiSaIiEEEEEvT_S7_, symObjAddr: 0x7094, symBinAddr: 0x10000C678, symSize: 0x38 }
  - { offsetInCU: 0x2E257, offset: 0x2E257, size: 0x8, addend: 0x0, symName: __ZNSt4pairIbiEC1IbiLb1EEEOT_OT0_, symObjAddr: 0x704C, symBinAddr: 0x10000C630, symSize: 0x48 }
  - { offsetInCU: 0x2E2E8, offset: 0x2E2E8, size: 0x8, addend: 0x0, symName: __ZNSt4pairIbiEC1IbRiLb1EEEOT_OT0_, symObjAddr: 0x7004, symBinAddr: 0x10000C5E8, symSize: 0x48 }
  - { offsetInCU: 0x2E314, offset: 0x2E314, size: 0x8, addend: 0x0, symName: __ZNSt6vectorIiSaIiEEaSERKS1_, symObjAddr: 0x6CBC, symBinAddr: 0x10000C2A0, symSize: 0x348 }
  - { offsetInCU: 0x2E490, offset: 0x2E490, size: 0x8, addend: 0x0, symName: __ZNSt6vectorIiSaIiEEaSEOS1_, symObjAddr: 0x6C78, symBinAddr: 0x10000C25C, symSize: 0x44 }
  - { offsetInCU: 0x2E4D5, offset: 0x2E4D5, size: 0x8, addend: 0x0, symName: __ZSt4sortIN9__gnu_cxx17__normal_iteratorIPSt6vectorIiSaIiEES2_IS4_SaIS4_EEEEPFbRKS4_SA_EEvT_SD_T0_, symObjAddr: 0x6C40, symBinAddr: 0x10000C224, symSize: 0x38 }
  - { offsetInCU: 0x2E533, offset: 0x2E533, size: 0x8, addend: 0x0, symName: __ZNSt6vectorIS_IiSaIiEESaIS1_EE3endEv, symObjAddr: 0x6C18, symBinAddr: 0x10000C1FC, symSize: 0x28 }
  - { offsetInCU: 0x2E55B, offset: 0x2E55B, size: 0x8, addend: 0x0, symName: __ZNSt6vectorIS_IiSaIiEESaIS1_EE5beginEv, symObjAddr: 0x6BF4, symBinAddr: 0x10000C1D8, symSize: 0x24 }
  - { offsetInCU: 0x2E583, offset: 0x2E583, size: 0x8, addend: 0x0, symName: __ZNSt6vectorIiSaIiEE9push_backEOi, symObjAddr: 0x6BC4, symBinAddr: 0x10000C1A8, symSize: 0x30 }
  - { offsetInCU: 0x2E5FA, offset: 0x2E5FA, size: 0x8, addend: 0x0, symName: __ZNSt6vectorIdSaIdEEC1ERKS1_, symObjAddr: 0x6AB0, symBinAddr: 0x10000C094, symSize: 0x114 }
  - { offsetInCU: 0x2E6F4, offset: 0x2E6F4, size: 0x8, addend: 0x0, symName: __ZNSt6vectorIS_IdSaIdEESaIS1_EE9push_backERKS1_, symObjAddr: 0x69A8, symBinAddr: 0x10000BF8C, symSize: 0x108 }
  - { offsetInCU: 0x2E7CF, offset: 0x2E7CF, size: 0x8, addend: 0x0, symName: __ZNSt6vectorIiSaIiEEC1ERKS1_, symObjAddr: 0x6894, symBinAddr: 0x10000BE78, symSize: 0x114 }
  - { offsetInCU: 0x2E91D, offset: 0x2E91D, size: 0x8, addend: 0x0, symName: __ZNSt12_Vector_baseISt6vectorIdSaIdEESaIS2_EE12_Vector_implC1Ev, symObjAddr: 0x685C, symBinAddr: 0x10000BE40, symSize: 0x38 }
  - { offsetInCU: 0x2E98E, offset: 0x2E98E, size: 0x8, addend: 0x0, symName: __Z9TransposeIiESt6vectorIS0_IT_SaIS1_EESaIS3_EES5_, symObjAddr: 0x6700, symBinAddr: 0x10000BCE4, symSize: 0x15C }
  - { offsetInCU: 0x2EA9C, offset: 0x2EA9C, size: 0x8, addend: 0x0, symName: __ZNSt6vectorIS_IiSaIiEESaIS1_EE9push_backERKS1_, symObjAddr: 0x65F8, symBinAddr: 0x10000BBDC, symSize: 0x108 }
  - { offsetInCU: 0x2EB38, offset: 0x2EB38, size: 0x8, addend: 0x0, symName: __ZNK9__gnu_cxx17__normal_iteratorIPiSt6vectorIiSaIiEEEdeEv, symObjAddr: 0x65E0, symBinAddr: 0x10000BBC4, symSize: 0x18 }
  - { offsetInCU: 0x2EB60, offset: 0x2EB60, size: 0x8, addend: 0x0, symName: __ZN9__gnu_cxx17__normal_iteratorIPiSt6vectorIiSaIiEEEppEv, symObjAddr: 0x65B8, symBinAddr: 0x10000BB9C, symSize: 0x28 }
  - { offsetInCU: 0x2EB84, offset: 0x2EB84, size: 0x8, addend: 0x0, symName: __ZN9__gnu_cxxneIPiSt6vectorIiSaIiEEEEbRKNS_17__normal_iteratorIT_T0_EESA_, symObjAddr: 0x6574, symBinAddr: 0x10000BB58, symSize: 0x44 }
  - { offsetInCU: 0x2EBCE, offset: 0x2EBCE, size: 0x8, addend: 0x0, symName: __ZN9__gnu_cxxeqIPiSt6vectorIiSaIiEEEEbRKNS_17__normal_iteratorIT_T0_EESA_, symObjAddr: 0x6530, symBinAddr: 0x10000BB14, symSize: 0x44 }
  - { offsetInCU: 0x2EC18, offset: 0x2EC18, size: 0x8, addend: 0x0, symName: __ZSt4findIN9__gnu_cxx17__normal_iteratorIPiSt6vectorIiSaIiEEEEiET_S7_S7_RKT0_, symObjAddr: 0x64FC, symBinAddr: 0x10000BAE0, symSize: 0x34 }
  - { offsetInCU: 0x2EC76, offset: 0x2EC76, size: 0x8, addend: 0x0, symName: __ZNSt6vectorIiSaIiEE3endEv, symObjAddr: 0x64D4, symBinAddr: 0x10000BAB8, symSize: 0x28 }
  - { offsetInCU: 0x2EC9E, offset: 0x2EC9E, size: 0x8, addend: 0x0, symName: __ZNSt6vectorIiSaIiEE5beginEv, symObjAddr: 0x64B0, symBinAddr: 0x10000BA94, symSize: 0x24 }
  - { offsetInCU: 0x2ECC6, offset: 0x2ECC6, size: 0x8, addend: 0x0, symName: __ZNSt6vectorIS_IiSaIiEESaIS1_EE5clearEv, symObjAddr: 0x6484, symBinAddr: 0x10000BA68, symSize: 0x2C }
  - { offsetInCU: 0x2ECEA, offset: 0x2ECEA, size: 0x8, addend: 0x0, symName: __ZSt4swapIiSaIiEEvRSt6vectorIT_T0_ES5_, symObjAddr: 0x645C, symBinAddr: 0x10000BA40, symSize: 0x28 }
  - { offsetInCU: 0x2ED97, offset: 0x2ED97, size: 0x8, addend: 0x0, symName: __ZNSt6vectorIiSaIiEEC1EmRKiRKS0_, symObjAddr: 0x63EC, symBinAddr: 0x10000B9D0, symSize: 0x70 }
  - { offsetInCU: 0x2EE2C, offset: 0x2EE2C, size: 0x8, addend: 0x0, symName: __ZNSt6vectorIS_IiSaIiEESaIS1_EEC1ESt16initializer_listIS1_ERKS2_, symObjAddr: 0x637C, symBinAddr: 0x10000B960, symSize: 0x70 }
  - { offsetInCU: 0x2EE9F, offset: 0x2EE9F, size: 0x8, addend: 0x0, symName: __ZNSt6vectorIiSaIiEEC1ESt16initializer_listIiERKS0_, symObjAddr: 0x630C, symBinAddr: 0x10000B8F0, symSize: 0x70 }
  - { offsetInCU: 0x2EF0A, offset: 0x2EF0A, size: 0x8, addend: 0x0, symName: __ZNSt12_Vector_baseISt6vectorIiSaIiEESaIS2_EED2Ev, symObjAddr: 0x62B0, symBinAddr: 0x10000B894, symSize: 0x5C }
  - { offsetInCU: 0x2EF73, offset: 0x2EF73, size: 0x8, addend: 0x0, symName: __ZNSt12_Vector_baseISt6vectorIiSaIiEESaIS2_EE12_Vector_implC1Ev, symObjAddr: 0x6278, symBinAddr: 0x10000B85C, symSize: 0x38 }
  - { offsetInCU: 0x2EFE4, offset: 0x2EFE4, size: 0x8, addend: 0x0, symName: __ZNSt6vectorIS_IiSaIiEESaIS1_EED1Ev, symObjAddr: 0x621C, symBinAddr: 0x10000B800, symSize: 0x5C }
  - { offsetInCU: 0x2F06A, offset: 0x2F06A, size: 0x8, addend: 0x0, symName: __ZNSt6vectorIS_IiSaIiEESaIS1_EEC1ERKS3_, symObjAddr: 0x6108, symBinAddr: 0x10000B6EC, symSize: 0x114 }
  - { offsetInCU: 0x2F159, offset: 0x2F159, size: 0x8, addend: 0x0, symName: __ZNKSt6vectorIS_IiSaIiEESaIS1_EEixEm, symObjAddr: 0x60D4, symBinAddr: 0x10000B6B8, symSize: 0x34 }
  - { offsetInCU: 0x2F1E3, offset: 0x2F1E3, size: 0x8, addend: 0x0, symName: __ZNSt12_Vector_baseIiSaIiEE12_Vector_implC1EOS2_, symObjAddr: 0x6068, symBinAddr: 0x10000B64C, symSize: 0x6C }
  - { offsetInCU: 0x2F23D, offset: 0x2F23D, size: 0x8, addend: 0x0, symName: __ZNSt6vectorIiSaIiEE9push_backERKi, symObjAddr: 0x5F94, symBinAddr: 0x10000B578, symSize: 0xD4 }
  - { offsetInCU: 0x2F317, offset: 0x2F317, size: 0x8, addend: 0x0, symName: __ZNSt6vectorIiSaIiEED1Ev, symObjAddr: 0x5F38, symBinAddr: 0x10000B51C, symSize: 0x5C }
  - { offsetInCU: 0x2F39B, offset: 0x2F39B, size: 0x8, addend: 0x0, symName: __ZNSt12_Vector_baseIiSaIiEED2Ev, symObjAddr: 0x5EE8, symBinAddr: 0x10000B4CC, symSize: 0x50 }
  - { offsetInCU: 0x2F404, offset: 0x2F404, size: 0x8, addend: 0x0, symName: __ZNSt12_Vector_baseIiSaIiEE12_Vector_implC1Ev, symObjAddr: 0x5EB0, symBinAddr: 0x10000B494, symSize: 0x38 }
  - { offsetInCU: 0x2F446, offset: 0x2F446, size: 0x8, addend: 0x0, symName: __ZNSt6vectorIiSaIiEEixEm, symObjAddr: 0x5E88, symBinAddr: 0x10000B46C, symSize: 0x28 }
  - { offsetInCU: 0x2F47E, offset: 0x2F47E, size: 0x8, addend: 0x0, symName: __ZNKSt6vectorIiSaIiEE4sizeEv, symObjAddr: 0x5E60, symBinAddr: 0x10000B444, symSize: 0x28 }
  - { offsetInCU: 0x2F4A6, offset: 0x2F4A6, size: 0x8, addend: 0x0, symName: __ZNSt6vectorIS_IiSaIiEESaIS1_EEixEm, symObjAddr: 0x5E2C, symBinAddr: 0x10000B410, symSize: 0x34 }
  - { offsetInCU: 0x2F4DE, offset: 0x2F4DE, size: 0x8, addend: 0x0, symName: __ZNKSt6vectorIS_IiSaIiEESaIS1_EE4sizeEv, symObjAddr: 0x5DF8, symBinAddr: 0x10000B3DC, symSize: 0x34 }
  - { offsetInCU: 0x2F555, offset: 0x2F555, size: 0x8, addend: 0x0, symName: __ZNSt12_Vector_baseISt6vectorIdSaIdEESaIS2_EED2Ev, symObjAddr: 0x5D9C, symBinAddr: 0x10000B380, symSize: 0x5C }
  - { offsetInCU: 0x2F5B9, offset: 0x2F5B9, size: 0x8, addend: 0x0, symName: __ZNSt6vectorIS_IdSaIdEESaIS1_EEC1EmRKS1_RKS2_, symObjAddr: 0x5D2C, symBinAddr: 0x10000B310, symSize: 0x70 }
  - { offsetInCU: 0x2F637, offset: 0x2F637, size: 0x8, addend: 0x0, symName: __ZNSt6vectorIdSaIdEED1Ev, symObjAddr: 0x5CD0, symBinAddr: 0x10000B2B4, symSize: 0x5C }
  - { offsetInCU: 0x2F6DD, offset: 0x2F6DD, size: 0x8, addend: 0x0, symName: __ZNSt6vectorIdSaIdEEC1EmRKdRKS0_, symObjAddr: 0x5C60, symBinAddr: 0x10000B244, symSize: 0x70 }
  - { offsetInCU: 0x2F773, offset: 0x2F773, size: 0x8, addend: 0x0, symName: __ZNSt6vectorIS_IdSaIdEESaIS1_EED1Ev, symObjAddr: 0x5C04, symBinAddr: 0x10000B1E8, symSize: 0x5C }
  - { offsetInCU: 0x2F7F9, offset: 0x2F7F9, size: 0x8, addend: 0x0, symName: __ZNSt6vectorIS_IdSaIdEESaIS1_EEC1ERKS3_, symObjAddr: 0x5AF0, symBinAddr: 0x10000B0D4, symSize: 0x114 }
  - { offsetInCU: 0x2F8E4, offset: 0x2F8E4, size: 0x8, addend: 0x0, symName: __ZSt4swapIdSaIdEEvRSt6vectorIT_T0_ES5_, symObjAddr: 0x5AC8, symBinAddr: 0x10000B0AC, symSize: 0x28 }
  - { offsetInCU: 0x2F932, offset: 0x2F932, size: 0x8, addend: 0x0, symName: __ZNSt6vectorIdSaIdEEixEm, symObjAddr: 0x5AA0, symBinAddr: 0x10000B084, symSize: 0x28 }
  - { offsetInCU: 0x2F96A, offset: 0x2F96A, size: 0x8, addend: 0x0, symName: __ZNKSt6vectorIdSaIdEE4sizeEv, symObjAddr: 0x5A78, symBinAddr: 0x10000B05C, symSize: 0x28 }
  - { offsetInCU: 0x2F992, offset: 0x2F992, size: 0x8, addend: 0x0, symName: __ZNSt6vectorIS_IdSaIdEESaIS1_EEixEm, symObjAddr: 0x5A44, symBinAddr: 0x10000B028, symSize: 0x34 }
  - { offsetInCU: 0x2F9CA, offset: 0x2F9CA, size: 0x8, addend: 0x0, symName: __ZNKSt6vectorIS_IdSaIdEESaIS1_EE4sizeEv, symObjAddr: 0x5A10, symBinAddr: 0x10000AFF4, symSize: 0x34 }
  - { offsetInCU: 0x2FA5B, offset: 0x2FA5B, size: 0x8, addend: 0x0, symName: __ZNSt7__cxx1112basic_stringIcSt11char_traitsIcESaIcEE12_Alloc_hiderD1Ev, symObjAddr: 0x59E4, symBinAddr: 0x10000AFC8, symSize: 0x2C }
  - { offsetInCU: 0x2FAA9, offset: 0x2FAA9, size: 0x8, addend: 0x0, symName: __ZN9__gnu_cxx6__stoaIddcJEEET0_PFT_PKT1_PPS3_DpT2_EPKcS5_PmS9_, symObjAddr: 0x58E0, symBinAddr: 0x10000AEC4, symSize: 0x104 }
  - { offsetInCU: 0x2FC1D, offset: 0x2FC1D, size: 0x8, addend: 0x0, symName: __ZZN9__gnu_cxx6__stoaIddcJEEET0_PFT_PKT1_PPS3_DpT2_EPKcS5_PmS9_EN11_Save_errnoC1Ev, symObjAddr: 0x5848, symBinAddr: 0x10000AE2C, symSize: 0x30 }
  - { offsetInCU: 0x2FC48, offset: 0x2FC48, size: 0x8, addend: 0x0, symName: __ZZN9__gnu_cxx6__stoaIddcJEEET0_PFT_PKT1_PPS3_DpT2_EPKcS5_PmS9_EN11_Save_errnoD1Ev, symObjAddr: 0x5878, symBinAddr: 0x10000AE5C, symSize: 0x50 }
  - { offsetInCU: 0x2FCAE, offset: 0x2FCAE, size: 0x8, addend: 0x0, symName: __ZZN9__gnu_cxx6__stoaIddcJEEET0_PFT_PKT1_PPS3_DpT2_EPKcS5_PmS9_EN10_Range_chk6_S_chkEdSt17integral_constantIbLb0EE, symObjAddr: 0x58C8, symBinAddr: 0x10000AEAC, symSize: 0x18 }
  - { offsetInCU: 0x2FCAE, offset: 0x2FCAE, size: 0x8, addend: 0x0, symName: __ZN9__gnu_cxx6__stoaIlicJiEEET0_PFT_PKT1_PPS3_DpT2_EPKcS5_PmS9_, symObjAddr: 0x5744, symBinAddr: 0x10000AD28, symSize: 0x104 }
  - { offsetInCU: 0x2FE30, offset: 0x2FE30, size: 0x8, addend: 0x0, symName: __ZZN9__gnu_cxx6__stoaIlicJiEEET0_PFT_PKT1_PPS3_DpT2_EPKcS5_PmS9_EN11_Save_errnoC1Ev, symObjAddr: 0x5684, symBinAddr: 0x10000AC68, symSize: 0x30 }
  - { offsetInCU: 0x2FE5B, offset: 0x2FE5B, size: 0x8, addend: 0x0, symName: __ZZN9__gnu_cxx6__stoaIlicJiEEET0_PFT_PKT1_PPS3_DpT2_EPKcS5_PmS9_EN11_Save_errnoD1Ev, symObjAddr: 0x56B4, symBinAddr: 0x10000AC98, symSize: 0x50 }
  - { offsetInCU: 0x2FEDC, offset: 0x2FEDC, size: 0x8, addend: 0x0, symName: __ZZN9__gnu_cxx6__stoaIlicJiEEET0_PFT_PKT1_PPS3_DpT2_EPKcS5_PmS9_EN10_Range_chk6_S_chkElSt17integral_constantIbLb1EE, symObjAddr: 0x5704, symBinAddr: 0x10000ACE8, symSize: 0x40 }
  - { offsetInCU: 0x2FEAC, offset: 0x2FEAC, size: 0x8, addend: 0x0, symName: __ZN9__gnu_cxx11char_traitsIcE6lengthEPKc, symObjAddr: 0x562C, symBinAddr: 0x10000AC10, symSize: 0x58 }
  - { offsetInCU: 0x2FEEC, offset: 0x2FEEC, size: 0x8, addend: 0x0, symName: _main, symObjAddr: 0x4F04, symBinAddr: 0x10000A4E8, symSize: 0x728 }
  - { offsetInCU: 0x30307, offset: 0x30307, size: 0x8, addend: 0x0, symName: __ZN10DPdataElecaSEOS_, symObjAddr: 0x4E78, symBinAddr: 0x10000A45C, symSize: 0x8C }
  - { offsetInCU: 0x303A2, offset: 0x303A2, size: 0x8, addend: 0x0, symName: __Z26find_all_electronic_cyclesSt6vectorIS_IiSaIiEESaIS1_EE, symObjAddr: 0x4A7C, symBinAddr: 0x10000A060, symSize: 0x3FC }
  - { offsetInCU: 0x304C2, offset: 0x304C2, size: 0x8, addend: 0x0, symName: __Z19remove_wrong_cyclesRSt6vectorIS_IiSaIiEESaIS1_EERKS3_, symObjAddr: 0x466C, symBinAddr: 0x100009C50, symSize: 0x410 }
  - { offsetInCU: 0x30590, offset: 0x30590, size: 0x8, addend: 0x0, symName: __ZZ19remove_wrong_cyclesRSt6vectorIS_IiSaIiEESaIS1_EERKS3_ENKUliE_clEi, symObjAddr: 0x4648, symBinAddr: 0x100009C2C, symSize: 0x24 }
  - { offsetInCU: 0x306D7, offset: 0x306D7, size: 0x8, addend: 0x0, symName: __Z11determinantRKSt6vectorIS_IiSaIiEESaIS1_EE, symObjAddr: 0x4350, symBinAddr: 0x100009934, symSize: 0x2F8 }
  - { offsetInCU: 0x30902, offset: 0x30902, size: 0x8, addend: 0x0, symName: __Z13Data_to_PermsRKNSt7__cxx1112basic_stringIcSt11char_traitsIcESaIcEEE, symObjAddr: 0x3398, symBinAddr: 0x10000897C, symSize: 0xFB8 }
  - { offsetInCU: 0x30FAE, offset: 0x30FAE, size: 0x8, addend: 0x0, symName: __ZNSt16istream_iteratorINSt7__cxx1112basic_stringIcSt11char_traitsIcESaIcEEEcS3_lED1Ev, symObjAddr: 0x3374, symBinAddr: 0x100008958, symSize: 0x24 }
  - { offsetInCU: 0x30FC1, offset: 0x30FC1, size: 0x8, addend: 0x0, symName: __ZNSt6vectorIS_IiSaIiEESaIS1_EEC1EOS3_, symObjAddr: 0x334C, symBinAddr: 0x100008930, symSize: 0x28 }
  - { offsetInCU: 0x3101B, offset: 0x3101B, size: 0x8, addend: 0x0, symName: __ZNSt12_Vector_baseISt6vectorIiSaIiEESaIS2_EEC2EOS4_, symObjAddr: 0x3324, symBinAddr: 0x100008908, symSize: 0x28 }
  - { offsetInCU: 0x3105C, offset: 0x3105C, size: 0x8, addend: 0x0, symName: __ZNSt6vectorISt7complexIdESaIS1_EEC1EOS3_, symObjAddr: 0x32FC, symBinAddr: 0x1000088E0, symSize: 0x28 }
  - { offsetInCU: 0x310AF, offset: 0x310AF, size: 0x8, addend: 0x0, symName: __ZNSt12_Vector_baseISt7complexIdESaIS1_EEC2EOS3_, symObjAddr: 0x32D4, symBinAddr: 0x1000088B8, symSize: 0x28 }
  - { offsetInCU: 0x310E6, offset: 0x310E6, size: 0x8, addend: 0x0, symName: __ZN10DPdataElecD1Ev, symObjAddr: 0x3278, symBinAddr: 0x10000885C, symSize: 0x5C }
  - { offsetInCU: 0x31128, offset: 0x31128, size: 0x8, addend: 0x0, symName: __ZN10DPdataElecC1Ev, symObjAddr: 0x321C, symBinAddr: 0x100008800, symSize: 0x5C }
  - { offsetInCU: 0x31181, offset: 0x31181, size: 0x8, addend: 0x0, symName: __ZNSt6vectorIS_IS_IiSaIiEESaIS1_EESaIS3_EEC1Ev, symObjAddr: 0x31FC, symBinAddr: 0x1000087E0, symSize: 0x20 }
  - { offsetInCU: 0x311CE, offset: 0x311CE, size: 0x8, addend: 0x0, symName: __ZNSt12_Vector_baseISt6vectorIS0_IiSaIiEESaIS2_EESaIS4_EEC2Ev, symObjAddr: 0x31DC, symBinAddr: 0x1000087C0, symSize: 0x20 }
  - { offsetInCU: 0x31227, offset: 0x31227, size: 0x8, addend: 0x0, symName: __ZNSt12_Vector_baseISt6vectorIS0_IiSaIiEESaIS2_EESaIS4_EE12_Vector_implD1Ev, symObjAddr: 0x31B0, symBinAddr: 0x100008794, symSize: 0x2C }
  - { offsetInCU: 0x3128C, offset: 0x3128C, size: 0x8, addend: 0x0, symName: __Z16Conjugate_coeffsSt6vectorIS_ISt7complexIdESaIS1_EESaIS3_EES_IS_IdSaIdEESaIS7_EE, symObjAddr: 0x2FA0, symBinAddr: 0x100008584, symSize: 0x210 }
  - { offsetInCU: 0x313BA, offset: 0x313BA, size: 0x8, addend: 0x0, symName: __ZNSt6vectorISt7complexIdESaIS1_EEC1Ev, symObjAddr: 0x2F80, symBinAddr: 0x100008564, symSize: 0x20 }
  - { offsetInCU: 0x313FF, offset: 0x313FF, size: 0x8, addend: 0x0, symName: __ZNSt12_Vector_baseISt7complexIdESaIS1_EEC2Ev, symObjAddr: 0x2F60, symBinAddr: 0x100008544, symSize: 0x20 }
  - { offsetInCU: 0x31458, offset: 0x31458, size: 0x8, addend: 0x0, symName: __ZNSt12_Vector_baseISt7complexIdESaIS1_EE12_Vector_implD1Ev, symObjAddr: 0x2F34, symBinAddr: 0x100008518, symSize: 0x2C }
  - { offsetInCU: 0x314AF, offset: 0x314AF, size: 0x8, addend: 0x0, symName: __ZNSt6vectorIS_ISt7complexIdESaIS1_EESaIS3_EEC1Ev, symObjAddr: 0x2F14, symBinAddr: 0x1000084F8, symSize: 0x20 }
  - { offsetInCU: 0x314FB, offset: 0x314FB, size: 0x8, addend: 0x0, symName: __ZNSt12_Vector_baseISt6vectorISt7complexIdESaIS2_EESaIS4_EEC2Ev, symObjAddr: 0x2EF4, symBinAddr: 0x1000084D8, symSize: 0x20 }
  - { offsetInCU: 0x31554, offset: 0x31554, size: 0x8, addend: 0x0, symName: __ZNSt12_Vector_baseISt6vectorISt7complexIdESaIS2_EESaIS4_EE12_Vector_implD1Ev, symObjAddr: 0x2EC8, symBinAddr: 0x1000084AC, symSize: 0x2C }
  - { offsetInCU: 0x31581, offset: 0x31581, size: 0x8, addend: 0x0, symName: __Z12Perm_lengthsSt6vectorIdSaIdEE, symObjAddr: 0x2DB8, symBinAddr: 0x10000839C, symSize: 0x110 }
  - { offsetInCU: 0x31623, offset: 0x31623, size: 0x8, addend: 0x0, symName: __Z10Read_coeffNSt7__cxx1112basic_stringIcSt11char_traitsIcESaIcEEE, symObjAddr: 0x2AA8, symBinAddr: 0x10000808C, symSize: 0x310 }
  - { offsetInCU: 0x316B8, offset: 0x316B8, size: 0x8, addend: 0x0, symName: __Z14Perm_conjugateSt6vectorIdSaIdEE, symObjAddr: 0x2A00, symBinAddr: 0x100007FE4, symSize: 0xA8 }
  - { offsetInCU: 0x31718, offset: 0x31718, size: 0x8, addend: 0x0, symName: __ZNSt6vectorIdSaIdEEC1Ev, symObjAddr: 0x29E0, symBinAddr: 0x100007FC4, symSize: 0x20 }
  - { offsetInCU: 0x3175D, offset: 0x3175D, size: 0x8, addend: 0x0, symName: __ZNSt12_Vector_baseIdSaIdEEC2Ev, symObjAddr: 0x29C0, symBinAddr: 0x100007FA4, symSize: 0x20 }
  - { offsetInCU: 0x3179F, offset: 0x3179F, size: 0x8, addend: 0x0, symName: __Z10Perm_foundSt6vectorIdSaIdEES_IS1_SaIS1_EE, symObjAddr: 0x28B0, symBinAddr: 0x100007E94, symSize: 0x110 }
  - { offsetInCU: 0x317FB, offset: 0x317FB, size: 0x8, addend: 0x0, symName: __Z10Diag_foundSt6vectorIiSaIiEES_IS1_SaIS1_EE, symObjAddr: 0x27A0, symBinAddr: 0x100007D84, symSize: 0x110 }
  - { offsetInCU: 0x31850, offset: 0x31850, size: 0x8, addend: 0x0, symName: __Z12Perm_compareSt6vectorIdSaIdEES1_, symObjAddr: 0x26AC, symBinAddr: 0x100007C90, symSize: 0xF4 }
  - { offsetInCU: 0x318B5, offset: 0x318B5, size: 0x8, addend: 0x0, symName: __Z9All_zerosSt6vectorIdSaIdEE, symObjAddr: 0x2614, symBinAddr: 0x100007BF8, symSize: 0x98 }
  - { offsetInCU: 0x31911, offset: 0x31911, size: 0x8, addend: 0x0, symName: __Z8Perm_subSt6vectorIdSaIdEES1_, symObjAddr: 0x256C, symBinAddr: 0x100007B50, symSize: 0xA8 }
  - { offsetInCU: 0x31986, offset: 0x31986, size: 0x8, addend: 0x0, symName: __Z8Perm_addSt6vectorIdSaIdEES1_, symObjAddr: 0x24C4, symBinAddr: 0x100007AA8, symSize: 0xA8 }
  - { offsetInCU: 0x31A08, offset: 0x31A08, size: 0x8, addend: 0x0, symName: __ZNSt6vectorIdSaIdEEC1EOS1_, symObjAddr: 0x249C, symBinAddr: 0x100007A80, symSize: 0x28 }
  - { offsetInCU: 0x31A5B, offset: 0x31A5B, size: 0x8, addend: 0x0, symName: __ZNSt12_Vector_baseIdSaIdEEC2EOS1_, symObjAddr: 0x2474, symBinAddr: 0x100007A58, symSize: 0x28 }
  - { offsetInCU: 0x31ABA, offset: 0x31ABA, size: 0x8, addend: 0x0, symName: __ZNSt12_Vector_baseIdSaIdEE12_Vector_implD1Ev, symObjAddr: 0x2448, symBinAddr: 0x100007A2C, symSize: 0x2C }
  - { offsetInCU: 0x31B0A, offset: 0x31B0A, size: 0x8, addend: 0x0, symName: __Z12Diag_compareSt6vectorIiSaIiEES1_, symObjAddr: 0x22BC, symBinAddr: 0x1000078A0, symSize: 0x18C }
  - { offsetInCU: 0x31BCE, offset: 0x31BCE, size: 0x8, addend: 0x0, symName: __Z12Sort_permuteSt6vectorIiSaIiEE, symObjAddr: 0x2198, symBinAddr: 0x10000777C, symSize: 0x124 }
  - { offsetInCU: 0x31C72, offset: 0x31C72, size: 0x8, addend: 0x0, symName: __Z11Find_numberiSt6vectorIiSaIiEE, symObjAddr: 0x20CC, symBinAddr: 0x1000076B0, symSize: 0xCC }
  - { offsetInCU: 0x31CE9, offset: 0x31CE9, size: 0x8, addend: 0x0, symName: __Z14Cycle_minimizeRSt6vectorIS_IiSaIiEESaIS1_EE, symObjAddr: 0x1ED0, symBinAddr: 0x1000074B4, symSize: 0x1FC }
  - { offsetInCU: 0x31D75, offset: 0x31D75, size: 0x8, addend: 0x0, symName: __Z12compare_nullRKSt6vectorIiSaIiEES3_, symObjAddr: 0x1E4C, symBinAddr: 0x100007430, symSize: 0x84 }
  - { offsetInCU: 0x31DAA, offset: 0x31DAA, size: 0x8, addend: 0x0, symName: __Z7Abs_sumSt6vectorIiSaIiEE, symObjAddr: 0x1DC8, symBinAddr: 0x1000073AC, symSize: 0x84 }
  - { offsetInCU: 0x31E16, offset: 0x31E16, size: 0x8, addend: 0x0, symName: __Z7Vec_subSt6vectorIiSaIiEES1_, symObjAddr: 0x1C44, symBinAddr: 0x100007228, symSize: 0x184 }
  - { offsetInCU: 0x31F18, offset: 0x31F18, size: 0x8, addend: 0x0, symName: __Z7Vec_addSt6vectorIiSaIiEES1_, symObjAddr: 0x1AC0, symBinAddr: 0x1000070A4, symSize: 0x184 }
  - { offsetInCU: 0x32020, offset: 0x32020, size: 0x8, addend: 0x0, symName: __Z9NullspaceSt6vectorIS_IdSaIdEESaIS1_EE, symObjAddr: 0x168C, symBinAddr: 0x100006C70, symSize: 0x434 }
  - { offsetInCU: 0x3222A, offset: 0x3222A, size: 0x8, addend: 0x0, symName: __ZNSt6vectorIS_IdSaIdEESaIS1_EEC1Ev, symObjAddr: 0x166C, symBinAddr: 0x100006C50, symSize: 0x20 }
  - { offsetInCU: 0x32276, offset: 0x32276, size: 0x8, addend: 0x0, symName: __ZNSt12_Vector_baseISt6vectorIdSaIdEESaIS2_EEC2Ev, symObjAddr: 0x164C, symBinAddr: 0x100006C30, symSize: 0x20 }
  - { offsetInCU: 0x322AE, offset: 0x322AE, size: 0x8, addend: 0x0, symName: __Z14Modp_nullspaceRKSt6vectorIS_IiSaIiEESaIS1_EEi, symObjAddr: 0xCD0, symBinAddr: 0x1000062B4, symSize: 0x97C }
  - { offsetInCU: 0x3274B, offset: 0x3274B, size: 0x8, addend: 0x0, symName: __ZNSt6vectorIS_IiSaIiEESaIS1_EEC1Ev, symObjAddr: 0xCB0, symBinAddr: 0x100006294, symSize: 0x20 }
  - { offsetInCU: 0x32797, offset: 0x32797, size: 0x8, addend: 0x0, symName: __ZNSt12_Vector_baseISt6vectorIiSaIiEESaIS2_EEC2Ev, symObjAddr: 0xC90, symBinAddr: 0x100006274, symSize: 0x20 }
  - { offsetInCU: 0x327F0, offset: 0x327F0, size: 0x8, addend: 0x0, symName: __ZNSt12_Vector_baseISt6vectorIiSaIiEESaIS2_EE12_Vector_implD1Ev, symObjAddr: 0xC64, symBinAddr: 0x100006248, symSize: 0x2C }
  - { offsetInCU: 0x32818, offset: 0x32818, size: 0x8, addend: 0x0, symName: __Z10modInverseii, symObjAddr: 0xBC8, symBinAddr: 0x1000061AC, symSize: 0x9C }
  - { offsetInCU: 0x32889, offset: 0x32889, size: 0x8, addend: 0x0, symName: __Z11Round_tointSt6vectorIdSaIdEE, symObjAddr: 0xB1C, symBinAddr: 0x100006100, symSize: 0xAC }
  - { offsetInCU: 0x32919, offset: 0x32919, size: 0x8, addend: 0x0, symName: __ZNSt6vectorIiSaIiEEC1EOS1_, symObjAddr: 0xAF4, symBinAddr: 0x1000060D8, symSize: 0x28 }
  - { offsetInCU: 0x3296C, offset: 0x3296C, size: 0x8, addend: 0x0, symName: __ZNSt12_Vector_baseIiSaIiEEC2EOS1_, symObjAddr: 0xACC, symBinAddr: 0x1000060B0, symSize: 0x28 }
  - { offsetInCU: 0x329A9, offset: 0x329A9, size: 0x8, addend: 0x0, symName: __ZNSt6vectorIiSaIiEEC1Ev, symObjAddr: 0xAAC, symBinAddr: 0x100006090, symSize: 0x20 }
  - { offsetInCU: 0x329EE, offset: 0x329EE, size: 0x8, addend: 0x0, symName: __ZNSt12_Vector_baseIiSaIiEEC2Ev, symObjAddr: 0xA8C, symBinAddr: 0x100006070, symSize: 0x20 }
  - { offsetInCU: 0x32A47, offset: 0x32A47, size: 0x8, addend: 0x0, symName: __ZNSt12_Vector_baseIiSaIiEE12_Vector_implD1Ev, symObjAddr: 0xA60, symBinAddr: 0x100006044, symSize: 0x2C }
  - { offsetInCU: 0x32A94, offset: 0x32A94, size: 0x8, addend: 0x0, symName: __Z12CheckOnesIntSt6vectorIiSaIiEE, symObjAddr: 0x994, symBinAddr: 0x100005F78, symSize: 0xCC }
  - { offsetInCU: 0x32AE3, offset: 0x32AE3, size: 0x8, addend: 0x0, symName: __Z9CheckOnesSt6vectorIdSaIdEE, symObjAddr: 0x8B8, symBinAddr: 0x100005E9C, symSize: 0xDC }
  - { offsetInCU: 0x32B47, offset: 0x32B47, size: 0x8, addend: 0x0, symName: __Z15Num_found_inVeciSt6vectorIiSaIiEE, symObjAddr: 0x81C, symBinAddr: 0x100005E00, symSize: 0x9C }
  - { offsetInCU: 0x32BB3, offset: 0x32BB3, size: 0x8, addend: 0x0, symName: __Z9All_zerosSt6vectorIS_IiSaIiEESaIS1_EE, symObjAddr: 0x73C, symBinAddr: 0x100005D20, symSize: 0xE0 }
  - { offsetInCU: 0x32C39, offset: 0x32C39, size: 0x8, addend: 0x0, symName: __Z13Nullspace_oldSt6vectorIS_IdSaIdEESaIS1_EE, symObjAddr: 0x574, symBinAddr: 0x100005B58, symSize: 0x1C8 }
  - { offsetInCU: 0x32E1B, offset: 0x32E1B, size: 0x8, addend: 0x0, symName: __ZNSt12_Vector_baseISt6vectorIdSaIdEESaIS2_EE12_Vector_implD1Ev, symObjAddr: 0x548, symBinAddr: 0x100005B2C, symSize: 0x2C }
  - { offsetInCU: 0x32E5B, offset: 0x32E5B, size: 0x8, addend: 0x0, symName: __Z10Gauss_ElimRSt6vectorIS_IdSaIdEESaIS1_EE, symObjAddr: 0x258, symBinAddr: 0x10000583C, symSize: 0x2F0 }
  - { offsetInCU: 0x32F53, offset: 0x32F53, size: 0x8, addend: 0x0, symName: __ZNKSt7complexIdE5__repEv, symObjAddr: 0x22C, symBinAddr: 0x100005810, symSize: 0x2C }
  - { offsetInCU: 0x32F7B, offset: 0x32F7B, size: 0x8, addend: 0x0, symName: __ZNSt7complexIdEmLEd, symObjAddr: 0x1E8, symBinAddr: 0x1000057CC, symSize: 0x44 }
  - { offsetInCU: 0x32FB3, offset: 0x32FB3, size: 0x8, addend: 0x0, symName: __ZNSt7complexIdEaSEd, symObjAddr: 0x1BC, symBinAddr: 0x1000057A0, symSize: 0x2C }
  - { offsetInCU: 0x32FEB, offset: 0x32FEB, size: 0x8, addend: 0x0, symName: __ZNKSt7complexIdE4imagB5cxx11Ev, symObjAddr: 0x1A4, symBinAddr: 0x100005788, symSize: 0x18 }
  - { offsetInCU: 0x33013, offset: 0x33013, size: 0x8, addend: 0x0, symName: __ZNKSt7complexIdE4realB5cxx11Ev, symObjAddr: 0x18C, symBinAddr: 0x100005770, symSize: 0x18 }
  - { offsetInCU: 0x33081, offset: 0x33081, size: 0x8, addend: 0x0, symName: __ZNSt7complexIdEC1Edd, symObjAddr: 0x158, symBinAddr: 0x10000573C, symSize: 0x34 }
  - { offsetInCU: 0x330A3, offset: 0x330A3, size: 0x8, addend: 0x0, symName: __ZNSt7__cxx114stodERKNS_12basic_stringIcSt11char_traitsIcESaIcEEEPm, symObjAddr: 0x11C, symBinAddr: 0x100005700, symSize: 0x3C }
  - { offsetInCU: 0x330DB, offset: 0x330DB, size: 0x8, addend: 0x0, symName: __ZNSt7__cxx114stoiERKNS_12basic_stringIcSt11char_traitsIcESaIcEEEPmi, symObjAddr: 0xD8, symBinAddr: 0x1000056BC, symSize: 0x44 }
  - { offsetInCU: 0x33123, offset: 0x33123, size: 0x8, addend: 0x0, symName: __ZSt3absd, symObjAddr: 0xC0, symBinAddr: 0x1000056A4, symSize: 0x18 }
  - { offsetInCU: 0x3314A, offset: 0x3314A, size: 0x8, addend: 0x0, symName: __ZSt17__size_to_integerm, symObjAddr: 0xAC, symBinAddr: 0x100005690, symSize: 0x14 }
  - { offsetInCU: 0x33172, offset: 0x33172, size: 0x8, addend: 0x0, symName: __ZN9__gnu_cxx5__ops15__val_comp_iterENS0_15_Iter_less_iterE, symObjAddr: 0x94, symBinAddr: 0x100005678, symSize: 0x18 }
  - { offsetInCU: 0x331EC, offset: 0x331EC, size: 0x8, addend: 0x0, symName: __ZN9__gnu_cxx5__ops14_Iter_less_valC1ENS0_15_Iter_less_iterE, symObjAddr: 0x7C, symBinAddr: 0x100005660, symSize: 0x18 }
  - { offsetInCU: 0x331DF, offset: 0x331DF, size: 0x8, addend: 0x0, symName: __ZN9__gnu_cxx5__ops16__iter_less_iterEv, symObjAddr: 0x74, symBinAddr: 0x100005658, symSize: 0x8 }
  - { offsetInCU: 0x331F6, offset: 0x331F6, size: 0x8, addend: 0x0, symName: __ZNSt11char_traitsIcE6lengthEPKc, symObjAddr: 0x38, symBinAddr: 0x10000561C, symSize: 0x3C }
  - { offsetInCU: 0x3322B, offset: 0x3322B, size: 0x8, addend: 0x0, symName: __ZdlPvS_, symObjAddr: 0x20, symBinAddr: 0x100005604, symSize: 0x18 }
  - { offsetInCU: 0x3325E, offset: 0x3325E, size: 0x8, addend: 0x0, symName: __ZnwmPv, symObjAddr: 0x8, symBinAddr: 0x1000055EC, symSize: 0x18 }
  - { offsetInCU: 0x3328A, offset: 0x3328A, size: 0x8, addend: 0x0, symName: __ZSt23__is_constant_evaluatedv, symObjAddr: 0x0, symBinAddr: 0x1000055E4, symSize: 0x8 }
...
